
AVRGCC1.elf:     file format elf32-avr

Sections:
Idx Name          Size      VMA       LMA       File off  Algn
  0 .text         00002c8c  00000000  00000000  00000094  2**1
                  CONTENTS, ALLOC, LOAD, READONLY, CODE
  1 .data         00000230  00800060  00002c8c  00002d20  2**0
                  CONTENTS, ALLOC, LOAD, DATA
  2 .bss          00000518  00800290  00800290  00002f50  2**0
                  ALLOC
  3 .stab         000006cc  00000000  00000000  00002f50  2**2
                  CONTENTS, READONLY, DEBUGGING
  4 .stabstr      00000085  00000000  00000000  0000361c  2**0
                  CONTENTS, READONLY, DEBUGGING

Disassembly of section .text:

00000000 <__vectors>:
       0:	0c 94 2a 00 	jmp	0x54	; 0x54 <__ctors_end>
       4:	0c 94 47 00 	jmp	0x8e	; 0x8e <__bad_interrupt>
       8:	0c 94 f2 01 	jmp	0x3e4	; 0x3e4 <__vector_2>
       c:	0c 94 c5 03 	jmp	0x78a	; 0x78a <__vector_3>
      10:	0c 94 47 00 	jmp	0x8e	; 0x8e <__bad_interrupt>
      14:	0c 94 47 00 	jmp	0x8e	; 0x8e <__bad_interrupt>
      18:	0c 94 47 00 	jmp	0x8e	; 0x8e <__bad_interrupt>
      1c:	0c 94 47 00 	jmp	0x8e	; 0x8e <__bad_interrupt>
      20:	0c 94 47 00 	jmp	0x8e	; 0x8e <__bad_interrupt>
      24:	0c 94 47 00 	jmp	0x8e	; 0x8e <__bad_interrupt>
      28:	0c 94 47 00 	jmp	0x8e	; 0x8e <__bad_interrupt>
      2c:	0c 94 47 00 	jmp	0x8e	; 0x8e <__bad_interrupt>
      30:	0c 94 47 00 	jmp	0x8e	; 0x8e <__bad_interrupt>
      34:	0c 94 47 00 	jmp	0x8e	; 0x8e <__bad_interrupt>
      38:	0c 94 47 00 	jmp	0x8e	; 0x8e <__bad_interrupt>
      3c:	0c 94 47 00 	jmp	0x8e	; 0x8e <__bad_interrupt>
      40:	0c 94 47 00 	jmp	0x8e	; 0x8e <__bad_interrupt>
      44:	0c 94 47 00 	jmp	0x8e	; 0x8e <__bad_interrupt>
      48:	0c 94 47 00 	jmp	0x8e	; 0x8e <__bad_interrupt>
      4c:	0c 94 47 00 	jmp	0x8e	; 0x8e <__bad_interrupt>
      50:	0c 94 47 00 	jmp	0x8e	; 0x8e <__bad_interrupt>

00000054 <__ctors_end>:
      54:	11 24       	eor	r1, r1
      56:	1f be       	out	0x3f, r1	; 63
      58:	cf e5       	ldi	r28, 0x5F	; 95
      5a:	d8 e0       	ldi	r29, 0x08	; 8
      5c:	de bf       	out	0x3e, r29	; 62
      5e:	cd bf       	out	0x3d, r28	; 61

00000060 <__do_copy_data>:
      60:	12 e0       	ldi	r17, 0x02	; 2
      62:	a0 e6       	ldi	r26, 0x60	; 96
      64:	b0 e0       	ldi	r27, 0x00	; 0
      66:	ec e8       	ldi	r30, 0x8C	; 140
      68:	fc e2       	ldi	r31, 0x2C	; 44
      6a:	02 c0       	rjmp	.+4      	; 0x70 <__do_copy_data+0x10>
      6c:	05 90       	lpm	r0, Z+
      6e:	0d 92       	st	X+, r0
      70:	a0 39       	cpi	r26, 0x90	; 144
      72:	b1 07       	cpc	r27, r17
      74:	d9 f7       	brne	.-10     	; 0x6c <__do_copy_data+0xc>

00000076 <__do_clear_bss>:
      76:	17 e0       	ldi	r17, 0x07	; 7
      78:	a0 e9       	ldi	r26, 0x90	; 144
      7a:	b2 e0       	ldi	r27, 0x02	; 2
      7c:	01 c0       	rjmp	.+2      	; 0x80 <.do_clear_bss_start>

0000007e <.do_clear_bss_loop>:
      7e:	1d 92       	st	X+, r1

00000080 <.do_clear_bss_start>:
      80:	a8 3a       	cpi	r26, 0xA8	; 168
      82:	b1 07       	cpc	r27, r17
      84:	e1 f7       	brne	.-8      	; 0x7e <.do_clear_bss_loop>
      86:	0e 94 06 04 	call	0x80c	; 0x80c <main>
      8a:	0c 94 44 16 	jmp	0x2c88	; 0x2c88 <_exit>

0000008e <__bad_interrupt>:
      8e:	0c 94 00 00 	jmp	0	; 0x0 <__vectors>

00000092 <setInterruptTimer>:
      92:	8b b7       	in	r24, 0x3b	; 59
      94:	8f 77       	andi	r24, 0x7F	; 127
      96:	8b bf       	out	0x3b, r24	; 59
      98:	8b b7       	in	r24, 0x3b	; 59
      9a:	80 68       	ori	r24, 0x80	; 128
      9c:	8b bf       	out	0x3b, r24	; 59
      9e:	88 e0       	ldi	r24, 0x08	; 8
      a0:	85 bf       	out	0x35, r24	; 53
      a2:	08 95       	ret

000000a4 <stopInterruptTimer>:
      a4:	8b b7       	in	r24, 0x3b	; 59
      a6:	8f 77       	andi	r24, 0x7F	; 127
      a8:	8b bf       	out	0x3b, r24	; 59
      aa:	08 95       	ret

000000ac <showScrollString>:
      ac:	ef 92       	push	r14
      ae:	ff 92       	push	r15
      b0:	0f 93       	push	r16
      b2:	1f 93       	push	r17
      b4:	cf 93       	push	r28
      b6:	df 93       	push	r29
      b8:	80 e4       	ldi	r24, 0x40	; 64
      ba:	9e e7       	ldi	r25, 0x7E	; 126
      bc:	a5 e0       	ldi	r26, 0x05	; 5
      be:	b0 e0       	ldi	r27, 0x00	; 0
      c0:	80 93 a4 07 	sts	0x07A4, r24
      c4:	90 93 a5 07 	sts	0x07A5, r25
      c8:	a0 93 a6 07 	sts	0x07A6, r26
      cc:	b0 93 a7 07 	sts	0x07A7, r27
      d0:	80 91 97 02 	lds	r24, 0x0297
      d4:	81 30       	cpi	r24, 0x01	; 1
      d6:	09 f0       	breq	.+2      	; 0xda <showScrollString+0x2e>
      d8:	b9 c0       	rjmp	.+370    	; 0x24c <showScrollString+0x1a0>
      da:	c0 e0       	ldi	r28, 0x00	; 0
      dc:	d0 e0       	ldi	r29, 0x00	; 0
      de:	88 c0       	rjmp	.+272    	; 0x1f0 <showScrollString+0x144>
      e0:	8e 01       	movw	r16, r28
      e2:	00 0f       	add	r16, r16
      e4:	11 1f       	adc	r17, r17
      e6:	02 0f       	add	r16, r18
      e8:	13 1f       	adc	r17, r19
      ea:	c8 01       	movw	r24, r16
      ec:	01 97       	sbiw	r24, 0x01	; 1
      ee:	87 35       	cpi	r24, 0x57	; 87
      f0:	91 05       	cpc	r25, r1
      f2:	48 f0       	brcs	.+18     	; 0x106 <showScrollString+0x5a>
      f4:	fe 01       	movw	r30, r28
      f6:	e3 52       	subi	r30, 0x23	; 35
      f8:	ff 4f       	sbci	r31, 0xFF	; 255
      fa:	80 81       	ld	r24, Z
      fc:	81 3a       	cpi	r24, 0xA1	; 161
      fe:	08 f4       	brcc	.+2      	; 0x102 <showScrollString+0x56>
     100:	76 c0       	rjmp	.+236    	; 0x1ee <showScrollString+0x142>
     102:	21 96       	adiw	r28, 0x01	; 1
     104:	74 c0       	rjmp	.+232    	; 0x1ee <showScrollString+0x142>
     106:	80 91 98 02 	lds	r24, 0x0298
     10a:	81 30       	cpi	r24, 0x01	; 1
     10c:	41 f5       	brne	.+80     	; 0x15e <showScrollString+0xb2>
     10e:	fe 01       	movw	r30, r28
     110:	e3 52       	subi	r30, 0x23	; 35
     112:	ff 4f       	sbci	r31, 0xFF	; 255
     114:	80 81       	ld	r24, Z
     116:	98 2f       	mov	r25, r24
     118:	91 52       	subi	r25, 0x21	; 33
     11a:	9e 35       	cpi	r25, 0x5E	; 94
     11c:	48 f4       	brcc	.+18     	; 0x130 <showScrollString+0x84>
     11e:	90 e0       	ldi	r25, 0x00	; 0
     120:	60 91 9a 02 	lds	r22, 0x029A
     124:	40 91 9b 02 	lds	r20, 0x029B
     128:	98 01       	movw	r18, r16
     12a:	0e 94 c4 12 	call	0x2588	; 0x2588 <sramASC16Set>
     12e:	17 c0       	rjmp	.+46     	; 0x15e <showScrollString+0xb2>
     130:	81 3a       	cpi	r24, 0xA1	; 161
     132:	90 f0       	brcs	.+36     	; 0x158 <showScrollString+0xac>
     134:	7e 01       	movw	r14, r28
     136:	08 94       	sec
     138:	e1 1c       	adc	r14, r1
     13a:	f1 1c       	adc	r15, r1
     13c:	f7 01       	movw	r30, r14
     13e:	e3 52       	subi	r30, 0x23	; 35
     140:	ff 4f       	sbci	r31, 0xFF	; 255
     142:	60 81       	ld	r22, Z
     144:	61 3a       	cpi	r22, 0xA1	; 161
     146:	40 f0       	brcs	.+16     	; 0x158 <showScrollString+0xac>
     148:	40 91 9a 02 	lds	r20, 0x029A
     14c:	20 91 9b 02 	lds	r18, 0x029B
     150:	0e 94 10 10 	call	0x2020	; 0x2020 <SramHZ16Set>
     154:	e7 01       	movw	r28, r14
     156:	03 c0       	rjmp	.+6      	; 0x15e <showScrollString+0xb2>
     158:	c8 01       	movw	r24, r16
     15a:	0e 94 04 15 	call	0x2a08	; 0x2a08 <SramSpace16Set>
     15e:	80 91 98 02 	lds	r24, 0x0298
     162:	82 30       	cpi	r24, 0x02	; 2
     164:	09 f0       	breq	.+2      	; 0x168 <showScrollString+0xbc>
     166:	43 c0       	rjmp	.+134    	; 0x1ee <showScrollString+0x142>
     168:	fe 01       	movw	r30, r28
     16a:	e3 52       	subi	r30, 0x23	; 35
     16c:	ff 4f       	sbci	r31, 0xFF	; 255
     16e:	80 81       	ld	r24, Z
     170:	98 2f       	mov	r25, r24
     172:	91 52       	subi	r25, 0x21	; 33
     174:	9e 35       	cpi	r25, 0x5E	; 94
     176:	88 f4       	brcc	.+34     	; 0x19a <showScrollString+0xee>
     178:	9e 01       	movw	r18, r28
     17a:	22 0f       	add	r18, r18
     17c:	33 1f       	adc	r19, r19
     17e:	40 91 a1 02 	lds	r20, 0x02A1
     182:	50 91 a2 02 	lds	r21, 0x02A2
     186:	24 0f       	add	r18, r20
     188:	35 1f       	adc	r19, r21
     18a:	90 e0       	ldi	r25, 0x00	; 0
     18c:	60 91 9a 02 	lds	r22, 0x029A
     190:	40 91 9b 02 	lds	r20, 0x029B
     194:	0e 94 5b 13 	call	0x26b6	; 0x26b6 <sramASC16SetWithoutBorder>
     198:	2a c0       	rjmp	.+84     	; 0x1ee <showScrollString+0x142>
     19a:	81 3a       	cpi	r24, 0xA1	; 161
     19c:	d8 f0       	brcs	.+54     	; 0x1d4 <showScrollString+0x128>
     19e:	7e 01       	movw	r14, r28
     1a0:	08 94       	sec
     1a2:	e1 1c       	adc	r14, r1
     1a4:	f1 1c       	adc	r15, r1
     1a6:	f7 01       	movw	r30, r14
     1a8:	e3 52       	subi	r30, 0x23	; 35
     1aa:	ff 4f       	sbci	r31, 0xFF	; 255
     1ac:	60 81       	ld	r22, Z
     1ae:	61 3a       	cpi	r22, 0xA1	; 161
     1b0:	88 f0       	brcs	.+34     	; 0x1d4 <showScrollString+0x128>
     1b2:	8e 01       	movw	r16, r28
     1b4:	00 0f       	add	r16, r16
     1b6:	11 1f       	adc	r17, r17
     1b8:	20 91 a1 02 	lds	r18, 0x02A1
     1bc:	30 91 a2 02 	lds	r19, 0x02A2
     1c0:	02 0f       	add	r16, r18
     1c2:	13 1f       	adc	r17, r19
     1c4:	40 91 9a 02 	lds	r20, 0x029A
     1c8:	20 91 9b 02 	lds	r18, 0x029B
     1cc:	0e 94 78 11 	call	0x22f0	; 0x22f0 <SramHZ16SetWithoutBorder>
     1d0:	e7 01       	movw	r28, r14
     1d2:	0d c0       	rjmp	.+26     	; 0x1ee <showScrollString+0x142>
     1d4:	be 01       	movw	r22, r28
     1d6:	66 0f       	add	r22, r22
     1d8:	77 1f       	adc	r23, r23
     1da:	80 91 a1 02 	lds	r24, 0x02A1
     1de:	90 91 a2 02 	lds	r25, 0x02A2
     1e2:	68 0f       	add	r22, r24
     1e4:	79 1f       	adc	r23, r25
     1e6:	80 91 9a 02 	lds	r24, 0x029A
     1ea:	0e 94 62 15 	call	0x2ac4	; 0x2ac4 <SramSpace16SetWithoutBorder>
     1ee:	21 96       	adiw	r28, 0x01	; 1
     1f0:	80 91 99 02 	lds	r24, 0x0299
     1f4:	90 e0       	ldi	r25, 0x00	; 0
     1f6:	20 91 a1 02 	lds	r18, 0x02A1
     1fa:	30 91 a2 02 	lds	r19, 0x02A2
     1fe:	c8 17       	cp	r28, r24
     200:	d9 07       	cpc	r29, r25
     202:	0c f4       	brge	.+2      	; 0x206 <showScrollString+0x15a>
     204:	6d cf       	rjmp	.-294    	; 0xe0 <showScrollString+0x34>
     206:	88 0f       	add	r24, r24
     208:	99 1f       	adc	r25, r25
     20a:	82 0f       	add	r24, r18
     20c:	93 1f       	adc	r25, r19
     20e:	89 35       	cpi	r24, 0x59	; 89
     210:	91 05       	cpc	r25, r1
     212:	0c f0       	brlt	.+2      	; 0x216 <showScrollString+0x16a>
     214:	e0 c0       	rjmp	.+448    	; 0x3d6 <showScrollString+0x32a>
     216:	20 91 98 02 	lds	r18, 0x0298
     21a:	21 30       	cpi	r18, 0x01	; 1
     21c:	11 f4       	brne	.+4      	; 0x222 <showScrollString+0x176>
     21e:	0e 94 04 15 	call	0x2a08	; 0x2a08 <SramSpace16Set>
     222:	80 91 98 02 	lds	r24, 0x0298
     226:	82 30       	cpi	r24, 0x02	; 2
     228:	09 f0       	breq	.+2      	; 0x22c <showScrollString+0x180>
     22a:	d5 c0       	rjmp	.+426    	; 0x3d6 <showScrollString+0x32a>
     22c:	60 91 99 02 	lds	r22, 0x0299
     230:	70 e0       	ldi	r23, 0x00	; 0
     232:	66 0f       	add	r22, r22
     234:	77 1f       	adc	r23, r23
     236:	80 91 a1 02 	lds	r24, 0x02A1
     23a:	90 91 a2 02 	lds	r25, 0x02A2
     23e:	68 0f       	add	r22, r24
     240:	79 1f       	adc	r23, r25
     242:	80 91 9a 02 	lds	r24, 0x029A
     246:	0e 94 62 15 	call	0x2ac4	; 0x2ac4 <SramSpace16SetWithoutBorder>
     24a:	c5 c0       	rjmp	.+394    	; 0x3d6 <showScrollString+0x32a>
     24c:	82 30       	cpi	r24, 0x02	; 2
     24e:	09 f0       	breq	.+2      	; 0x252 <showScrollString+0x1a6>
     250:	c2 c0       	rjmp	.+388    	; 0x3d6 <showScrollString+0x32a>
     252:	c0 e0       	ldi	r28, 0x00	; 0
     254:	d0 e0       	ldi	r29, 0x00	; 0
     256:	90 c0       	rjmp	.+288    	; 0x378 <showScrollString+0x2cc>
     258:	8e 01       	movw	r16, r28
     25a:	00 0f       	add	r16, r16
     25c:	11 1f       	adc	r17, r17
     25e:	0c 0f       	add	r16, r28
     260:	1d 1f       	adc	r17, r29
     262:	02 0f       	add	r16, r18
     264:	13 1f       	adc	r17, r19
     266:	c8 01       	movw	r24, r16
     268:	01 97       	sbiw	r24, 0x01	; 1
     26a:	87 35       	cpi	r24, 0x57	; 87
     26c:	91 05       	cpc	r25, r1
     26e:	48 f0       	brcs	.+18     	; 0x282 <showScrollString+0x1d6>
     270:	fe 01       	movw	r30, r28
     272:	e3 52       	subi	r30, 0x23	; 35
     274:	ff 4f       	sbci	r31, 0xFF	; 255
     276:	80 81       	ld	r24, Z
     278:	81 3a       	cpi	r24, 0xA1	; 161
     27a:	08 f4       	brcc	.+2      	; 0x27e <showScrollString+0x1d2>
     27c:	7c c0       	rjmp	.+248    	; 0x376 <showScrollString+0x2ca>
     27e:	21 96       	adiw	r28, 0x01	; 1
     280:	7a c0       	rjmp	.+244    	; 0x376 <showScrollString+0x2ca>
     282:	80 91 98 02 	lds	r24, 0x0298
     286:	81 30       	cpi	r24, 0x01	; 1
     288:	41 f5       	brne	.+80     	; 0x2da <showScrollString+0x22e>
     28a:	fe 01       	movw	r30, r28
     28c:	e3 52       	subi	r30, 0x23	; 35
     28e:	ff 4f       	sbci	r31, 0xFF	; 255
     290:	80 81       	ld	r24, Z
     292:	98 2f       	mov	r25, r24
     294:	91 52       	subi	r25, 0x21	; 33
     296:	9e 35       	cpi	r25, 0x5E	; 94
     298:	48 f4       	brcc	.+18     	; 0x2ac <showScrollString+0x200>
     29a:	90 e0       	ldi	r25, 0x00	; 0
     29c:	60 91 9a 02 	lds	r22, 0x029A
     2a0:	40 91 9b 02 	lds	r20, 0x029B
     2a4:	98 01       	movw	r18, r16
     2a6:	0e 94 c4 12 	call	0x2588	; 0x2588 <sramASC16Set>
     2aa:	17 c0       	rjmp	.+46     	; 0x2da <showScrollString+0x22e>
     2ac:	81 3a       	cpi	r24, 0xA1	; 161
     2ae:	90 f0       	brcs	.+36     	; 0x2d4 <showScrollString+0x228>
     2b0:	7e 01       	movw	r14, r28
     2b2:	08 94       	sec
     2b4:	e1 1c       	adc	r14, r1
     2b6:	f1 1c       	adc	r15, r1
     2b8:	f7 01       	movw	r30, r14
     2ba:	e3 52       	subi	r30, 0x23	; 35
     2bc:	ff 4f       	sbci	r31, 0xFF	; 255
     2be:	60 81       	ld	r22, Z
     2c0:	61 3a       	cpi	r22, 0xA1	; 161
     2c2:	40 f0       	brcs	.+16     	; 0x2d4 <showScrollString+0x228>
     2c4:	40 91 9a 02 	lds	r20, 0x029A
     2c8:	20 91 9b 02 	lds	r18, 0x029B
     2cc:	0e 94 c1 10 	call	0x2182	; 0x2182 <SramHZ24Set>
     2d0:	e7 01       	movw	r28, r14
     2d2:	03 c0       	rjmp	.+6      	; 0x2da <showScrollString+0x22e>
     2d4:	c8 01       	movw	r24, r16
     2d6:	0e 94 33 15 	call	0x2a66	; 0x2a66 <SramSpace24Set>
     2da:	80 91 98 02 	lds	r24, 0x0298
     2de:	82 30       	cpi	r24, 0x02	; 2
     2e0:	09 f0       	breq	.+2      	; 0x2e4 <showScrollString+0x238>
     2e2:	49 c0       	rjmp	.+146    	; 0x376 <showScrollString+0x2ca>
     2e4:	fe 01       	movw	r30, r28
     2e6:	e3 52       	subi	r30, 0x23	; 35
     2e8:	ff 4f       	sbci	r31, 0xFF	; 255
     2ea:	80 81       	ld	r24, Z
     2ec:	98 2f       	mov	r25, r24
     2ee:	91 52       	subi	r25, 0x21	; 33
     2f0:	9e 35       	cpi	r25, 0x5E	; 94
     2f2:	98 f4       	brcc	.+38     	; 0x31a <showScrollString+0x26e>
     2f4:	9e 01       	movw	r18, r28
     2f6:	22 0f       	add	r18, r18
     2f8:	33 1f       	adc	r19, r19
     2fa:	2c 0f       	add	r18, r28
     2fc:	3d 1f       	adc	r19, r29
     2fe:	40 91 a1 02 	lds	r20, 0x02A1
     302:	50 91 a2 02 	lds	r21, 0x02A2
     306:	24 0f       	add	r18, r20
     308:	35 1f       	adc	r19, r21
     30a:	90 e0       	ldi	r25, 0x00	; 0
     30c:	60 91 9a 02 	lds	r22, 0x029A
     310:	40 91 9b 02 	lds	r20, 0x029B
     314:	0e 94 5b 13 	call	0x26b6	; 0x26b6 <sramASC16SetWithoutBorder>
     318:	2e c0       	rjmp	.+92     	; 0x376 <showScrollString+0x2ca>
     31a:	81 3a       	cpi	r24, 0xA1	; 161
     31c:	e8 f0       	brcs	.+58     	; 0x358 <showScrollString+0x2ac>
     31e:	7e 01       	movw	r14, r28
     320:	08 94       	sec
     322:	e1 1c       	adc	r14, r1
     324:	f1 1c       	adc	r15, r1
     326:	f7 01       	movw	r30, r14
     328:	e3 52       	subi	r30, 0x23	; 35
     32a:	ff 4f       	sbci	r31, 0xFF	; 255
     32c:	60 81       	ld	r22, Z
     32e:	61 3a       	cpi	r22, 0xA1	; 161
     330:	98 f0       	brcs	.+38     	; 0x358 <showScrollString+0x2ac>
     332:	8e 01       	movw	r16, r28
     334:	00 0f       	add	r16, r16
     336:	11 1f       	adc	r17, r17
     338:	0c 0f       	add	r16, r28
     33a:	1d 1f       	adc	r17, r29
     33c:	20 91 a1 02 	lds	r18, 0x02A1
     340:	30 91 a2 02 	lds	r19, 0x02A2
     344:	02 0f       	add	r16, r18
     346:	13 1f       	adc	r17, r19
     348:	40 91 9a 02 	lds	r20, 0x029A
     34c:	20 91 9b 02 	lds	r18, 0x029B
     350:	0e 94 1c 12 	call	0x2438	; 0x2438 <SramHZ24SetWithoutBorder>
     354:	e7 01       	movw	r28, r14
     356:	0f c0       	rjmp	.+30     	; 0x376 <showScrollString+0x2ca>
     358:	be 01       	movw	r22, r28
     35a:	66 0f       	add	r22, r22
     35c:	77 1f       	adc	r23, r23
     35e:	6c 0f       	add	r22, r28
     360:	7d 1f       	adc	r23, r29
     362:	80 91 a1 02 	lds	r24, 0x02A1
     366:	90 91 a2 02 	lds	r25, 0x02A2
     36a:	68 0f       	add	r22, r24
     36c:	79 1f       	adc	r23, r25
     36e:	80 91 9a 02 	lds	r24, 0x029A
     372:	0e 94 ad 15 	call	0x2b5a	; 0x2b5a <SramSpace24SetWithoutBorder>
     376:	21 96       	adiw	r28, 0x01	; 1
     378:	40 91 99 02 	lds	r20, 0x0299
     37c:	50 e0       	ldi	r21, 0x00	; 0
     37e:	20 91 a1 02 	lds	r18, 0x02A1
     382:	30 91 a2 02 	lds	r19, 0x02A2
     386:	c4 17       	cp	r28, r20
     388:	d5 07       	cpc	r29, r21
     38a:	0c f4       	brge	.+2      	; 0x38e <showScrollString+0x2e2>
     38c:	65 cf       	rjmp	.-310    	; 0x258 <showScrollString+0x1ac>
     38e:	ca 01       	movw	r24, r20
     390:	88 0f       	add	r24, r24
     392:	99 1f       	adc	r25, r25
     394:	84 0f       	add	r24, r20
     396:	95 1f       	adc	r25, r21
     398:	82 0f       	add	r24, r18
     39a:	93 1f       	adc	r25, r19
     39c:	89 35       	cpi	r24, 0x59	; 89
     39e:	91 05       	cpc	r25, r1
     3a0:	d4 f4       	brge	.+52     	; 0x3d6 <showScrollString+0x32a>
     3a2:	20 91 98 02 	lds	r18, 0x0298
     3a6:	21 30       	cpi	r18, 0x01	; 1
     3a8:	11 f4       	brne	.+4      	; 0x3ae <showScrollString+0x302>
     3aa:	0e 94 33 15 	call	0x2a66	; 0x2a66 <SramSpace24Set>
     3ae:	80 91 98 02 	lds	r24, 0x0298
     3b2:	82 30       	cpi	r24, 0x02	; 2
     3b4:	81 f4       	brne	.+32     	; 0x3d6 <showScrollString+0x32a>
     3b6:	60 91 99 02 	lds	r22, 0x0299
     3ba:	83 e0       	ldi	r24, 0x03	; 3
     3bc:	68 9f       	mul	r22, r24
     3be:	b0 01       	movw	r22, r0
     3c0:	11 24       	eor	r1, r1
     3c2:	80 91 a1 02 	lds	r24, 0x02A1
     3c6:	90 91 a2 02 	lds	r25, 0x02A2
     3ca:	68 0f       	add	r22, r24
     3cc:	79 1f       	adc	r23, r25
     3ce:	80 91 9a 02 	lds	r24, 0x029A
     3d2:	0e 94 ad 15 	call	0x2b5a	; 0x2b5a <SramSpace24SetWithoutBorder>
     3d6:	df 91       	pop	r29
     3d8:	cf 91       	pop	r28
     3da:	1f 91       	pop	r17
     3dc:	0f 91       	pop	r16
     3de:	ff 90       	pop	r15
     3e0:	ef 90       	pop	r14
     3e2:	08 95       	ret

000003e4 <__vector_2>:
     3e4:	1f 92       	push	r1
     3e6:	0f 92       	push	r0
     3e8:	0f b6       	in	r0, 0x3f	; 63
     3ea:	0f 92       	push	r0
     3ec:	11 24       	eor	r1, r1
     3ee:	2f 93       	push	r18
     3f0:	3f 93       	push	r19
     3f2:	4f 93       	push	r20
     3f4:	5f 93       	push	r21
     3f6:	6f 93       	push	r22
     3f8:	7f 93       	push	r23
     3fa:	8f 93       	push	r24
     3fc:	9f 93       	push	r25
     3fe:	af 93       	push	r26
     400:	bf 93       	push	r27
     402:	ef 93       	push	r30
     404:	ff 93       	push	r31
     406:	f8 94       	cli
     408:	80 91 96 02 	lds	r24, 0x0296
     40c:	81 30       	cpi	r24, 0x01	; 1
     40e:	89 f5       	brne	.+98     	; 0x472 <__vector_2+0x8e>
     410:	80 91 a3 07 	lds	r24, 0x07A3
     414:	8f 5f       	subi	r24, 0xFF	; 255
     416:	80 93 a3 07 	sts	0x07A3, r24
     41a:	80 31       	cpi	r24, 0x10	; 16
     41c:	50 f1       	brcs	.+84     	; 0x472 <__vector_2+0x8e>
     41e:	10 92 a3 07 	sts	0x07A3, r1
     422:	80 91 a1 02 	lds	r24, 0x02A1
     426:	90 91 a2 02 	lds	r25, 0x02A2
     42a:	01 97       	sbiw	r24, 0x01	; 1
     42c:	90 93 a2 02 	sts	0x02A2, r25
     430:	80 93 a1 02 	sts	0x02A1, r24
     434:	20 91 97 02 	lds	r18, 0x0297
     438:	21 30       	cpi	r18, 0x01	; 1
     43a:	31 f4       	brne	.+12     	; 0x448 <__vector_2+0x64>
     43c:	20 91 99 02 	lds	r18, 0x0299
     440:	30 e0       	ldi	r19, 0x00	; 0
     442:	22 0f       	add	r18, r18
     444:	33 1f       	adc	r19, r19
     446:	08 c0       	rjmp	.+16     	; 0x458 <__vector_2+0x74>
     448:	22 30       	cpi	r18, 0x02	; 2
     44a:	89 f4       	brne	.+34     	; 0x46e <__vector_2+0x8a>
     44c:	30 91 99 02 	lds	r19, 0x0299
     450:	23 e0       	ldi	r18, 0x03	; 3
     452:	32 9f       	mul	r19, r18
     454:	90 01       	movw	r18, r0
     456:	11 24       	eor	r1, r1
     458:	28 0f       	add	r18, r24
     45a:	39 1f       	adc	r19, r25
     45c:	12 16       	cp	r1, r18
     45e:	13 06       	cpc	r1, r19
     460:	34 f0       	brlt	.+12     	; 0x46e <__vector_2+0x8a>
     462:	88 e5       	ldi	r24, 0x58	; 88
     464:	90 e0       	ldi	r25, 0x00	; 0
     466:	90 93 a2 02 	sts	0x02A2, r25
     46a:	80 93 a1 02 	sts	0x02A1, r24
     46e:	0e 94 56 00 	call	0xac	; 0xac <showScrollString>
     472:	78 94       	sei
     474:	ff 91       	pop	r31
     476:	ef 91       	pop	r30
     478:	bf 91       	pop	r27
     47a:	af 91       	pop	r26
     47c:	9f 91       	pop	r25
     47e:	8f 91       	pop	r24
     480:	7f 91       	pop	r23
     482:	6f 91       	pop	r22
     484:	5f 91       	pop	r21
     486:	4f 91       	pop	r20
     488:	3f 91       	pop	r19
     48a:	2f 91       	pop	r18
     48c:	0f 90       	pop	r0
     48e:	0f be       	out	0x3f, r0	; 63
     490:	0f 90       	pop	r0
     492:	1f 90       	pop	r1
     494:	18 95       	reti

00000496 <showStaticString>:
     496:	cf 92       	push	r12
     498:	df 92       	push	r13
     49a:	ef 92       	push	r14
     49c:	ff 92       	push	r15
     49e:	0f 93       	push	r16
     4a0:	1f 93       	push	r17
     4a2:	cf 93       	push	r28
     4a4:	df 93       	push	r29
     4a6:	7b 01       	movw	r14, r22
     4a8:	bc 01       	movw	r22, r24
     4aa:	80 e0       	ldi	r24, 0x00	; 0
     4ac:	90 e0       	ldi	r25, 0x00	; 0
     4ae:	20 ea       	ldi	r18, 0xA0	; 160
     4b0:	35 e0       	ldi	r19, 0x05	; 5
     4b2:	40 e0       	ldi	r20, 0x00	; 0
     4b4:	50 e0       	ldi	r21, 0x00	; 0
     4b6:	0e 94 25 16 	call	0x2c4a	; 0x2c4a <__mulsi3>
     4ba:	60 93 a4 07 	sts	0x07A4, r22
     4be:	70 93 a5 07 	sts	0x07A5, r23
     4c2:	80 93 a6 07 	sts	0x07A6, r24
     4c6:	90 93 a7 07 	sts	0x07A7, r25
     4ca:	80 91 97 02 	lds	r24, 0x0297
     4ce:	81 30       	cpi	r24, 0x01	; 1
     4d0:	09 f0       	breq	.+2      	; 0x4d4 <showStaticString+0x3e>
     4d2:	a2 c0       	rjmp	.+324    	; 0x618 <showStaticString+0x182>
     4d4:	e7 01       	movw	r28, r14
     4d6:	00 e0       	ldi	r16, 0x00	; 0
     4d8:	10 e0       	ldi	r17, 0x00	; 0
     4da:	96 c0       	rjmp	.+300    	; 0x608 <showStaticString+0x172>
     4dc:	80 91 98 02 	lds	r24, 0x0298
     4e0:	81 30       	cpi	r24, 0x01	; 1
     4e2:	09 f0       	breq	.+2      	; 0x4e6 <showStaticString+0x50>
     4e4:	44 c0       	rjmp	.+136    	; 0x56e <showStaticString+0xd8>
     4e6:	f8 01       	movw	r30, r16
     4e8:	e3 52       	subi	r30, 0x23	; 35
     4ea:	ff 4f       	sbci	r31, 0xFF	; 255
     4ec:	80 81       	ld	r24, Z
     4ee:	98 2f       	mov	r25, r24
     4f0:	91 52       	subi	r25, 0x21	; 33
     4f2:	9e 35       	cpi	r25, 0x5E	; 94
     4f4:	48 f4       	brcc	.+18     	; 0x508 <showStaticString+0x72>
     4f6:	90 e0       	ldi	r25, 0x00	; 0
     4f8:	60 91 9a 02 	lds	r22, 0x029A
     4fc:	40 91 9b 02 	lds	r20, 0x029B
     500:	9e 01       	movw	r18, r28
     502:	0e 94 c4 12 	call	0x2588	; 0x2588 <sramASC16Set>
     506:	19 c0       	rjmp	.+50     	; 0x53a <showStaticString+0xa4>
     508:	81 3a       	cpi	r24, 0xA1	; 161
     50a:	a0 f0       	brcs	.+40     	; 0x534 <showStaticString+0x9e>
     50c:	78 01       	movw	r14, r16
     50e:	08 94       	sec
     510:	e1 1c       	adc	r14, r1
     512:	f1 1c       	adc	r15, r1
     514:	f7 01       	movw	r30, r14
     516:	e3 52       	subi	r30, 0x23	; 35
     518:	ff 4f       	sbci	r31, 0xFF	; 255
     51a:	60 81       	ld	r22, Z
     51c:	61 3a       	cpi	r22, 0xA1	; 161
     51e:	50 f0       	brcs	.+20     	; 0x534 <showStaticString+0x9e>
     520:	40 91 9a 02 	lds	r20, 0x029A
     524:	20 91 9b 02 	lds	r18, 0x029B
     528:	8e 01       	movw	r16, r28
     52a:	0e 94 10 10 	call	0x2020	; 0x2020 <SramHZ16Set>
     52e:	24 96       	adiw	r28, 0x04	; 4
     530:	87 01       	movw	r16, r14
     532:	04 c0       	rjmp	.+8      	; 0x53c <showStaticString+0xa6>
     534:	ce 01       	movw	r24, r28
     536:	0e 94 04 15 	call	0x2a08	; 0x2a08 <SramSpace16Set>
     53a:	22 96       	adiw	r28, 0x02	; 2
     53c:	c2 35       	cpi	r28, 0x52	; 82
     53e:	d1 05       	cpc	r29, r1
     540:	b0 f0       	brcs	.+44     	; 0x56e <showStaticString+0xd8>
     542:	80 91 a4 07 	lds	r24, 0x07A4
     546:	90 91 a5 07 	lds	r25, 0x07A5
     54a:	a0 91 a6 07 	lds	r26, 0x07A6
     54e:	b0 91 a7 07 	lds	r27, 0x07A7
     552:	80 5c       	subi	r24, 0xC0	; 192
     554:	9a 49       	sbci	r25, 0x9A	; 154
     556:	af 4f       	sbci	r26, 0xFF	; 255
     558:	bf 4f       	sbci	r27, 0xFF	; 255
     55a:	80 93 a4 07 	sts	0x07A4, r24
     55e:	90 93 a5 07 	sts	0x07A5, r25
     562:	a0 93 a6 07 	sts	0x07A6, r26
     566:	b0 93 a7 07 	sts	0x07A7, r27
     56a:	c4 e0       	ldi	r28, 0x04	; 4
     56c:	d0 e0       	ldi	r29, 0x00	; 0
     56e:	80 91 98 02 	lds	r24, 0x0298
     572:	82 30       	cpi	r24, 0x02	; 2
     574:	09 f0       	breq	.+2      	; 0x578 <showStaticString+0xe2>
     576:	46 c0       	rjmp	.+140    	; 0x604 <showStaticString+0x16e>
     578:	f8 01       	movw	r30, r16
     57a:	e3 52       	subi	r30, 0x23	; 35
     57c:	ff 4f       	sbci	r31, 0xFF	; 255
     57e:	80 81       	ld	r24, Z
     580:	98 2f       	mov	r25, r24
     582:	91 52       	subi	r25, 0x21	; 33
     584:	9e 35       	cpi	r25, 0x5E	; 94
     586:	48 f4       	brcc	.+18     	; 0x59a <showStaticString+0x104>
     588:	90 e0       	ldi	r25, 0x00	; 0
     58a:	60 91 9a 02 	lds	r22, 0x029A
     58e:	40 91 9b 02 	lds	r20, 0x029B
     592:	9e 01       	movw	r18, r28
     594:	0e 94 5b 13 	call	0x26b6	; 0x26b6 <sramASC16SetWithoutBorder>
     598:	1b c0       	rjmp	.+54     	; 0x5d0 <showStaticString+0x13a>
     59a:	81 3a       	cpi	r24, 0xA1	; 161
     59c:	a0 f0       	brcs	.+40     	; 0x5c6 <showStaticString+0x130>
     59e:	78 01       	movw	r14, r16
     5a0:	08 94       	sec
     5a2:	e1 1c       	adc	r14, r1
     5a4:	f1 1c       	adc	r15, r1
     5a6:	f7 01       	movw	r30, r14
     5a8:	e3 52       	subi	r30, 0x23	; 35
     5aa:	ff 4f       	sbci	r31, 0xFF	; 255
     5ac:	60 81       	ld	r22, Z
     5ae:	61 3a       	cpi	r22, 0xA1	; 161
     5b0:	50 f0       	brcs	.+20     	; 0x5c6 <showStaticString+0x130>
     5b2:	40 91 9a 02 	lds	r20, 0x029A
     5b6:	20 91 9b 02 	lds	r18, 0x029B
     5ba:	8e 01       	movw	r16, r28
     5bc:	0e 94 78 11 	call	0x22f0	; 0x22f0 <SramHZ16SetWithoutBorder>
     5c0:	24 96       	adiw	r28, 0x04	; 4
     5c2:	87 01       	movw	r16, r14
     5c4:	06 c0       	rjmp	.+12     	; 0x5d2 <showStaticString+0x13c>
     5c6:	80 91 9a 02 	lds	r24, 0x029A
     5ca:	be 01       	movw	r22, r28
     5cc:	0e 94 62 15 	call	0x2ac4	; 0x2ac4 <SramSpace16SetWithoutBorder>
     5d0:	22 96       	adiw	r28, 0x02	; 2
     5d2:	c2 35       	cpi	r28, 0x52	; 82
     5d4:	d1 05       	cpc	r29, r1
     5d6:	b0 f0       	brcs	.+44     	; 0x604 <showStaticString+0x16e>
     5d8:	80 91 a4 07 	lds	r24, 0x07A4
     5dc:	90 91 a5 07 	lds	r25, 0x07A5
     5e0:	a0 91 a6 07 	lds	r26, 0x07A6
     5e4:	b0 91 a7 07 	lds	r27, 0x07A7
     5e8:	80 5c       	subi	r24, 0xC0	; 192
     5ea:	9a 49       	sbci	r25, 0x9A	; 154
     5ec:	af 4f       	sbci	r26, 0xFF	; 255
     5ee:	bf 4f       	sbci	r27, 0xFF	; 255
     5f0:	80 93 a4 07 	sts	0x07A4, r24
     5f4:	90 93 a5 07 	sts	0x07A5, r25
     5f8:	a0 93 a6 07 	sts	0x07A6, r26
     5fc:	b0 93 a7 07 	sts	0x07A7, r27
     600:	c4 e0       	ldi	r28, 0x04	; 4
     602:	d0 e0       	ldi	r29, 0x00	; 0
     604:	0f 5f       	subi	r16, 0xFF	; 255
     606:	1f 4f       	sbci	r17, 0xFF	; 255
     608:	80 91 99 02 	lds	r24, 0x0299
     60c:	90 e0       	ldi	r25, 0x00	; 0
     60e:	08 17       	cp	r16, r24
     610:	19 07       	cpc	r17, r25
     612:	0c f4       	brge	.+2      	; 0x616 <showStaticString+0x180>
     614:	63 cf       	rjmp	.-314    	; 0x4dc <showStaticString+0x46>
     616:	b0 c0       	rjmp	.+352    	; 0x778 <showStaticString+0x2e2>
     618:	82 30       	cpi	r24, 0x02	; 2
     61a:	09 f0       	breq	.+2      	; 0x61e <showStaticString+0x188>
     61c:	ad c0       	rjmp	.+346    	; 0x778 <showStaticString+0x2e2>
     61e:	e7 01       	movw	r28, r14
     620:	00 e0       	ldi	r16, 0x00	; 0
     622:	10 e0       	ldi	r17, 0x00	; 0
     624:	a2 c0       	rjmp	.+324    	; 0x76a <showStaticString+0x2d4>
     626:	80 91 98 02 	lds	r24, 0x0298
     62a:	81 30       	cpi	r24, 0x01	; 1
     62c:	09 f0       	breq	.+2      	; 0x630 <showStaticString+0x19a>
     62e:	4a c0       	rjmp	.+148    	; 0x6c4 <showStaticString+0x22e>
     630:	f8 01       	movw	r30, r16
     632:	e3 52       	subi	r30, 0x23	; 35
     634:	ff 4f       	sbci	r31, 0xFF	; 255
     636:	80 81       	ld	r24, Z
     638:	98 2f       	mov	r25, r24
     63a:	91 52       	subi	r25, 0x21	; 33
     63c:	9e 35       	cpi	r25, 0x5E	; 94
     63e:	78 f4       	brcc	.+30     	; 0x65e <showStaticString+0x1c8>
     640:	98 01       	movw	r18, r16
     642:	22 0f       	add	r18, r18
     644:	33 1f       	adc	r19, r19
     646:	20 0f       	add	r18, r16
     648:	31 1f       	adc	r19, r17
     64a:	2e 0d       	add	r18, r14
     64c:	3f 1d       	adc	r19, r15
     64e:	90 e0       	ldi	r25, 0x00	; 0
     650:	60 91 9a 02 	lds	r22, 0x029A
     654:	40 91 9b 02 	lds	r20, 0x029B
     658:	0e 94 c4 12 	call	0x2588	; 0x2588 <sramASC16Set>
     65c:	1a c0       	rjmp	.+52     	; 0x692 <showStaticString+0x1fc>
     65e:	81 3a       	cpi	r24, 0xA1	; 161
     660:	a0 f0       	brcs	.+40     	; 0x68a <showStaticString+0x1f4>
     662:	68 01       	movw	r12, r16
     664:	08 94       	sec
     666:	c1 1c       	adc	r12, r1
     668:	d1 1c       	adc	r13, r1
     66a:	f6 01       	movw	r30, r12
     66c:	e3 52       	subi	r30, 0x23	; 35
     66e:	ff 4f       	sbci	r31, 0xFF	; 255
     670:	60 81       	ld	r22, Z
     672:	61 3a       	cpi	r22, 0xA1	; 161
     674:	50 f0       	brcs	.+20     	; 0x68a <showStaticString+0x1f4>
     676:	40 91 9a 02 	lds	r20, 0x029A
     67a:	20 91 9b 02 	lds	r18, 0x029B
     67e:	8e 01       	movw	r16, r28
     680:	0e 94 c1 10 	call	0x2182	; 0x2182 <SramHZ24Set>
     684:	26 96       	adiw	r28, 0x06	; 6
     686:	86 01       	movw	r16, r12
     688:	04 c0       	rjmp	.+8      	; 0x692 <showStaticString+0x1fc>
     68a:	ce 01       	movw	r24, r28
     68c:	0e 94 33 15 	call	0x2a66	; 0x2a66 <SramSpace24Set>
     690:	23 96       	adiw	r28, 0x03	; 3
     692:	c4 35       	cpi	r28, 0x54	; 84
     694:	d1 05       	cpc	r29, r1
     696:	b0 f0       	brcs	.+44     	; 0x6c4 <showStaticString+0x22e>
     698:	80 91 a4 07 	lds	r24, 0x07A4
     69c:	90 91 a5 07 	lds	r25, 0x07A5
     6a0:	a0 91 a6 07 	lds	r26, 0x07A6
     6a4:	b0 91 a7 07 	lds	r27, 0x07A7
     6a8:	80 5c       	subi	r24, 0xC0	; 192
     6aa:	9d 46       	sbci	r25, 0x6D	; 109
     6ac:	af 4f       	sbci	r26, 0xFF	; 255
     6ae:	bf 4f       	sbci	r27, 0xFF	; 255
     6b0:	80 93 a4 07 	sts	0x07A4, r24
     6b4:	90 93 a5 07 	sts	0x07A5, r25
     6b8:	a0 93 a6 07 	sts	0x07A6, r26
     6bc:	b0 93 a7 07 	sts	0x07A7, r27
     6c0:	c4 e0       	ldi	r28, 0x04	; 4
     6c2:	d0 e0       	ldi	r29, 0x00	; 0
     6c4:	80 91 98 02 	lds	r24, 0x0298
     6c8:	82 30       	cpi	r24, 0x02	; 2
     6ca:	09 f0       	breq	.+2      	; 0x6ce <showStaticString+0x238>
     6cc:	4c c0       	rjmp	.+152    	; 0x766 <showStaticString+0x2d0>
     6ce:	f8 01       	movw	r30, r16
     6d0:	e3 52       	subi	r30, 0x23	; 35
     6d2:	ff 4f       	sbci	r31, 0xFF	; 255
     6d4:	80 81       	ld	r24, Z
     6d6:	98 2f       	mov	r25, r24
     6d8:	91 52       	subi	r25, 0x21	; 33
     6da:	9e 35       	cpi	r25, 0x5E	; 94
     6dc:	78 f4       	brcc	.+30     	; 0x6fc <showStaticString+0x266>
     6de:	98 01       	movw	r18, r16
     6e0:	22 0f       	add	r18, r18
     6e2:	33 1f       	adc	r19, r19
     6e4:	20 0f       	add	r18, r16
     6e6:	31 1f       	adc	r19, r17
     6e8:	2e 0d       	add	r18, r14
     6ea:	3f 1d       	adc	r19, r15
     6ec:	90 e0       	ldi	r25, 0x00	; 0
     6ee:	60 91 9a 02 	lds	r22, 0x029A
     6f2:	40 91 9b 02 	lds	r20, 0x029B
     6f6:	0e 94 5b 13 	call	0x26b6	; 0x26b6 <sramASC16SetWithoutBorder>
     6fa:	1c c0       	rjmp	.+56     	; 0x734 <showStaticString+0x29e>
     6fc:	81 3a       	cpi	r24, 0xA1	; 161
     6fe:	a0 f0       	brcs	.+40     	; 0x728 <showStaticString+0x292>
     700:	68 01       	movw	r12, r16
     702:	08 94       	sec
     704:	c1 1c       	adc	r12, r1
     706:	d1 1c       	adc	r13, r1
     708:	f6 01       	movw	r30, r12
     70a:	e3 52       	subi	r30, 0x23	; 35
     70c:	ff 4f       	sbci	r31, 0xFF	; 255
     70e:	60 81       	ld	r22, Z
     710:	61 3a       	cpi	r22, 0xA1	; 161
     712:	50 f0       	brcs	.+20     	; 0x728 <showStaticString+0x292>
     714:	40 91 9a 02 	lds	r20, 0x029A
     718:	20 91 9b 02 	lds	r18, 0x029B
     71c:	8e 01       	movw	r16, r28
     71e:	0e 94 1c 12 	call	0x2438	; 0x2438 <SramHZ24SetWithoutBorder>
     722:	26 96       	adiw	r28, 0x06	; 6
     724:	86 01       	movw	r16, r12
     726:	06 c0       	rjmp	.+12     	; 0x734 <showStaticString+0x29e>
     728:	80 91 9a 02 	lds	r24, 0x029A
     72c:	be 01       	movw	r22, r28
     72e:	0e 94 ad 15 	call	0x2b5a	; 0x2b5a <SramSpace24SetWithoutBorder>
     732:	23 96       	adiw	r28, 0x03	; 3
     734:	c4 35       	cpi	r28, 0x54	; 84
     736:	d1 05       	cpc	r29, r1
     738:	b0 f0       	brcs	.+44     	; 0x766 <showStaticString+0x2d0>
     73a:	80 91 a4 07 	lds	r24, 0x07A4
     73e:	90 91 a5 07 	lds	r25, 0x07A5
     742:	a0 91 a6 07 	lds	r26, 0x07A6
     746:	b0 91 a7 07 	lds	r27, 0x07A7
     74a:	80 5c       	subi	r24, 0xC0	; 192
     74c:	9d 46       	sbci	r25, 0x6D	; 109
     74e:	af 4f       	sbci	r26, 0xFF	; 255
     750:	bf 4f       	sbci	r27, 0xFF	; 255
     752:	80 93 a4 07 	sts	0x07A4, r24
     756:	90 93 a5 07 	sts	0x07A5, r25
     75a:	a0 93 a6 07 	sts	0x07A6, r26
     75e:	b0 93 a7 07 	sts	0x07A7, r27
     762:	c4 e0       	ldi	r28, 0x04	; 4
     764:	d0 e0       	ldi	r29, 0x00	; 0
     766:	0f 5f       	subi	r16, 0xFF	; 255
     768:	1f 4f       	sbci	r17, 0xFF	; 255
     76a:	80 91 99 02 	lds	r24, 0x0299
     76e:	90 e0       	ldi	r25, 0x00	; 0
     770:	08 17       	cp	r16, r24
     772:	19 07       	cpc	r17, r25
     774:	0c f4       	brge	.+2      	; 0x778 <showStaticString+0x2e2>
     776:	57 cf       	rjmp	.-338    	; 0x626 <showStaticString+0x190>
     778:	df 91       	pop	r29
     77a:	cf 91       	pop	r28
     77c:	1f 91       	pop	r17
     77e:	0f 91       	pop	r16
     780:	ff 90       	pop	r15
     782:	ef 90       	pop	r14
     784:	df 90       	pop	r13
     786:	cf 90       	pop	r12
     788:	08 95       	ret

0000078a <__vector_3>:
     78a:	1f 92       	push	r1
     78c:	0f 92       	push	r0
     78e:	0f b6       	in	r0, 0x3f	; 63
     790:	0f 92       	push	r0
     792:	11 24       	eor	r1, r1
     794:	2f 93       	push	r18
     796:	3f 93       	push	r19
     798:	4f 93       	push	r20
     79a:	5f 93       	push	r21
     79c:	6f 93       	push	r22
     79e:	7f 93       	push	r23
     7a0:	8f 93       	push	r24
     7a2:	9f 93       	push	r25
     7a4:	af 93       	push	r26
     7a6:	bf 93       	push	r27
     7a8:	ef 93       	push	r30
     7aa:	ff 93       	push	r31
     7ac:	f8 94       	cli
     7ae:	0e 94 2a 06 	call	0xc54	; 0xc54 <server>
     7b2:	80 91 9e 02 	lds	r24, 0x029E
     7b6:	88 23       	and	r24, r24
     7b8:	b9 f0       	breq	.+46     	; 0x7e8 <__vector_3+0x5e>
     7ba:	80 91 96 02 	lds	r24, 0x0296
     7be:	82 30       	cpi	r24, 0x02	; 2
     7c0:	69 f4       	brne	.+26     	; 0x7dc <__vector_3+0x52>
     7c2:	0e 94 4b 0f 	call	0x1e96	; 0x1e96 <SramClear>
     7c6:	60 91 9d 02 	lds	r22, 0x029D
     7ca:	80 91 9c 02 	lds	r24, 0x029C
     7ce:	90 e0       	ldi	r25, 0x00	; 0
     7d0:	70 e0       	ldi	r23, 0x00	; 0
     7d2:	0e 94 4b 02 	call	0x496	; 0x496 <showStaticString>
     7d6:	0e 94 52 00 	call	0xa4	; 0xa4 <stopInterruptTimer>
     7da:	04 c0       	rjmp	.+8      	; 0x7e4 <__vector_3+0x5a>
     7dc:	0e 94 4b 0f 	call	0x1e96	; 0x1e96 <SramClear>
     7e0:	0e 94 49 00 	call	0x92	; 0x92 <setInterruptTimer>
     7e4:	10 92 9e 02 	sts	0x029E, r1
     7e8:	78 94       	sei
     7ea:	ff 91       	pop	r31
     7ec:	ef 91       	pop	r30
     7ee:	bf 91       	pop	r27
     7f0:	af 91       	pop	r26
     7f2:	9f 91       	pop	r25
     7f4:	8f 91       	pop	r24
     7f6:	7f 91       	pop	r23
     7f8:	6f 91       	pop	r22
     7fa:	5f 91       	pop	r21
     7fc:	4f 91       	pop	r20
     7fe:	3f 91       	pop	r19
     800:	2f 91       	pop	r18
     802:	0f 90       	pop	r0
     804:	0f be       	out	0x3f, r0	; 63
     806:	0f 90       	pop	r0
     808:	1f 90       	pop	r1
     80a:	18 95       	reti

0000080c <main>:
     80c:	a8 95       	wdr
     80e:	81 b5       	in	r24, 0x21	; 33
     810:	88 61       	ori	r24, 0x18	; 24
     812:	81 bd       	out	0x21, r24	; 33
     814:	11 bc       	out	0x21, r1	; 33
     816:	0e 94 f8 15 	call	0x2bf0	; 0x2bf0 <USART_init>
     81a:	80 e6       	ldi	r24, 0x60	; 96
     81c:	90 e0       	ldi	r25, 0x00	; 0
     81e:	0e 94 0b 16 	call	0x2c16	; 0x2c16 <USART_StringPut>
     822:	1d bc       	out	0x2d, r1	; 45
     824:	1c bc       	out	0x2c, r1	; 44
     826:	8b e1       	ldi	r24, 0x1B	; 27
     828:	97 eb       	ldi	r25, 0xB7	; 183
     82a:	9b bd       	out	0x2b, r25	; 43
     82c:	8a bd       	out	0x2a, r24	; 42
     82e:	1f bc       	out	0x2f, r1	; 47
     830:	8d e0       	ldi	r24, 0x0D	; 13
     832:	8e bd       	out	0x2e, r24	; 46
     834:	08 b6       	in	r0, 0x38	; 56
     836:	04 fe       	sbrs	r0, 4
     838:	fd cf       	rjmp	.-6      	; 0x834 <main+0x28>
     83a:	88 b7       	in	r24, 0x38	; 56
     83c:	80 61       	ori	r24, 0x10	; 16
     83e:	88 bf       	out	0x38, r24	; 56
     840:	80 e7       	ldi	r24, 0x70	; 112
     842:	90 e0       	ldi	r25, 0x00	; 0
     844:	0e 94 0b 16 	call	0x2c16	; 0x2c16 <USART_StringPut>
     848:	0e 94 93 0b 	call	0x1726	; 0x1726 <SPI_MasterInit>
     84c:	0e 94 c3 0c 	call	0x1986	; 0x1986 <enc28j60_init>
     850:	8c e7       	ldi	r24, 0x7C	; 124
     852:	90 e0       	ldi	r25, 0x00	; 0
     854:	0e 94 0b 16 	call	0x2c16	; 0x2c16 <USART_StringPut>
     858:	8b b7       	in	r24, 0x3b	; 59
     85a:	8f 7d       	andi	r24, 0xDF	; 223
     85c:	8b bf       	out	0x3b, r24	; 59
     85e:	8b b7       	in	r24, 0x3b	; 59
     860:	80 62       	ori	r24, 0x20	; 32
     862:	8b bf       	out	0x3b, r24	; 59
     864:	84 b7       	in	r24, 0x34	; 52
     866:	8f 7b       	andi	r24, 0xBF	; 191
     868:	84 bf       	out	0x34, r24	; 52
     86a:	89 e8       	ldi	r24, 0x89	; 137
     86c:	90 e0       	ldi	r25, 0x00	; 0
     86e:	0e 94 0b 16 	call	0x2c16	; 0x2c16 <USART_StringPut>
     872:	0e 94 db 06 	call	0xdb6	; 0xdb6 <I2C_init>
     876:	0e 94 7a 0a 	call	0x14f4	; 0x14f4 <SAA7121_init>
     87a:	0e 94 de 09 	call	0x13bc	; 0x13bc <SAA7113_init>
     87e:	83 e9       	ldi	r24, 0x93	; 147
     880:	90 e0       	ldi	r25, 0x00	; 0
     882:	0e 94 0b 16 	call	0x2c16	; 0x2c16 <USART_StringPut>
     886:	0e 94 4b 0f 	call	0x1e96	; 0x1e96 <SramClear>
     88a:	0e 94 70 04 	call	0x8e0	; 0x8e0 <PORTC_init>
     88e:	0e 94 a7 04 	call	0x94e	; 0x94e <ExtFlashReset>
     892:	85 e0       	ldi	r24, 0x05	; 5
     894:	90 e0       	ldi	r25, 0x00	; 0
     896:	90 93 a2 02 	sts	0x02A2, r25
     89a:	80 93 a1 02 	sts	0x02A1, r24
     89e:	10 92 a3 07 	sts	0x07A3, r1
     8a2:	85 e1       	ldi	r24, 0x15	; 21
     8a4:	80 93 99 02 	sts	0x0299, r24
     8a8:	8a e0       	ldi	r24, 0x0A	; 10
     8aa:	80 93 9a 02 	sts	0x029A, r24
     8ae:	82 e0       	ldi	r24, 0x02	; 2
     8b0:	80 93 9b 02 	sts	0x029B, r24
     8b4:	e6 e9       	ldi	r30, 0x96	; 150
     8b6:	f2 e0       	ldi	r31, 0x02	; 2
     8b8:	81 e0       	ldi	r24, 0x01	; 1
     8ba:	80 93 96 02 	sts	0x0296, r24
     8be:	81 83       	std	Z+1, r24	; 0x01
     8c0:	82 83       	std	Z+2, r24	; 0x02
     8c2:	8b e9       	ldi	r24, 0x9B	; 155
     8c4:	90 e0       	ldi	r25, 0x00	; 0
     8c6:	6a e0       	ldi	r22, 0x0A	; 10
     8c8:	70 e0       	ldi	r23, 0x00	; 0
     8ca:	0e 94 4b 02 	call	0x496	; 0x496 <showStaticString>
     8ce:	8e e9       	ldi	r24, 0x9E	; 158
     8d0:	90 e0       	ldi	r25, 0x00	; 0
     8d2:	0e 94 0b 16 	call	0x2c16	; 0x2c16 <USART_StringPut>
     8d6:	78 94       	sei
     8d8:	8d 9a       	sbi	0x11, 5	; 17
     8da:	95 9a       	sbi	0x12, 5	; 18
     8dc:	a8 95       	wdr
     8de:	fe cf       	rjmp	.-4      	; 0x8dc <__stack+0x7d>

000008e0 <PORTC_init>:
     8e0:	8f e7       	ldi	r24, 0x7F	; 127
     8e2:	84 bb       	out	0x14, r24	; 20
     8e4:	83 e8       	ldi	r24, 0x83	; 131
     8e6:	85 bb       	out	0x15, r24	; 21
     8e8:	00 00       	nop
     8ea:	08 95       	ret

000008ec <PORTA_init>:
     8ec:	08 95       	ret

000008ee <ExtFlashCommandSet>:
     8ee:	95 9a       	sbi	0x12, 5	; 18
     8f0:	ab 98       	cbi	0x15, 3	; 21
     8f2:	ad 98       	cbi	0x15, 5	; 21
     8f4:	ae 9a       	sbi	0x15, 6	; 21
     8f6:	ac 9a       	sbi	0x15, 4	; 21
     8f8:	aa 98       	cbi	0x15, 2	; 21
     8fa:	9f ef       	ldi	r25, 0xFF	; 255
     8fc:	9a bb       	out	0x1a, r25	; 26
     8fe:	8b bb       	out	0x1b, r24	; 27
     900:	aa 9a       	sbi	0x15, 2	; 21
     902:	ac 98       	cbi	0x15, 4	; 21
     904:	08 95       	ret

00000906 <ExtFlashAddressSet>:
     906:	95 9a       	sbi	0x12, 5	; 18
     908:	ad 98       	cbi	0x15, 5	; 21
     90a:	ae 9a       	sbi	0x15, 6	; 21
     90c:	ac 98       	cbi	0x15, 4	; 21
     90e:	ab 9a       	sbi	0x15, 3	; 21
     910:	aa 98       	cbi	0x15, 2	; 21
     912:	9f ef       	ldi	r25, 0xFF	; 255
     914:	9a bb       	out	0x1a, r25	; 26
     916:	8b bb       	out	0x1b, r24	; 27
     918:	aa 9a       	sbi	0x15, 2	; 21
     91a:	ab 98       	cbi	0x15, 3	; 21
     91c:	08 95       	ret

0000091e <ExtFlashDataSet>:
     91e:	95 9a       	sbi	0x12, 5	; 18
     920:	ae 9a       	sbi	0x15, 6	; 21
     922:	ac 98       	cbi	0x15, 4	; 21
     924:	ad 98       	cbi	0x15, 5	; 21
     926:	ab 98       	cbi	0x15, 3	; 21
     928:	aa 98       	cbi	0x15, 2	; 21
     92a:	9f ef       	ldi	r25, 0xFF	; 255
     92c:	9a bb       	out	0x1a, r25	; 26
     92e:	8b bb       	out	0x1b, r24	; 27
     930:	aa 9a       	sbi	0x15, 2	; 21
     932:	08 95       	ret

00000934 <ExtFlashDataRead>:
     934:	95 9a       	sbi	0x12, 5	; 18
     936:	9f 9b       	sbis	0x13, 7	; 19
     938:	fe cf       	rjmp	.-4      	; 0x936 <ExtFlashDataRead+0x2>
     93a:	ac 98       	cbi	0x15, 4	; 21
     93c:	ad 98       	cbi	0x15, 5	; 21
     93e:	aa 9a       	sbi	0x15, 2	; 21
     940:	ab 98       	cbi	0x15, 3	; 21
     942:	ae 98       	cbi	0x15, 6	; 21
     944:	00 00       	nop
     946:	1a ba       	out	0x1a, r1	; 26
     948:	89 b3       	in	r24, 0x19	; 25
     94a:	ae 9a       	sbi	0x15, 6	; 21
     94c:	08 95       	ret

0000094e <ExtFlashReset>:
     94e:	8f ef       	ldi	r24, 0xFF	; 255
     950:	0e 94 77 04 	call	0x8ee	; 0x8ee <ExtFlashCommandSet>
     954:	08 95       	ret

00000956 <ExtFlashStatusRead>:
     956:	80 e7       	ldi	r24, 0x70	; 112
     958:	0e 94 77 04 	call	0x8ee	; 0x8ee <ExtFlashCommandSet>
     95c:	0e 94 9a 04 	call	0x934	; 0x934 <ExtFlashDataRead>
     960:	ad 9a       	sbi	0x15, 5	; 21
     962:	08 95       	ret

00000964 <ExtFlashCheckID>:
     964:	0f 93       	push	r16
     966:	1f 93       	push	r17
     968:	80 e9       	ldi	r24, 0x90	; 144
     96a:	0e 94 77 04 	call	0x8ee	; 0x8ee <ExtFlashCommandSet>
     96e:	80 e0       	ldi	r24, 0x00	; 0
     970:	0e 94 83 04 	call	0x906	; 0x906 <ExtFlashAddressSet>
     974:	0e 94 9a 04 	call	0x934	; 0x934 <ExtFlashDataRead>
     978:	08 2f       	mov	r16, r24
     97a:	0e 94 9a 04 	call	0x934	; 0x934 <ExtFlashDataRead>
     97e:	18 2f       	mov	r17, r24
     980:	0e 94 9a 04 	call	0x934	; 0x934 <ExtFlashDataRead>
     984:	0e 94 9a 04 	call	0x934	; 0x934 <ExtFlashDataRead>
     988:	ad 9a       	sbi	0x15, 5	; 21
     98a:	0c 3e       	cpi	r16, 0xEC	; 236
     98c:	19 f4       	brne	.+6      	; 0x994 <ExtFlashCheckID+0x30>
     98e:	81 e0       	ldi	r24, 0x01	; 1
     990:	16 37       	cpi	r17, 0x76	; 118
     992:	09 f0       	breq	.+2      	; 0x996 <ExtFlashCheckID+0x32>
     994:	80 e0       	ldi	r24, 0x00	; 0
     996:	1f 91       	pop	r17
     998:	0f 91       	pop	r16
     99a:	08 95       	ret

0000099c <ExtFlashPageDataRead>:
     99c:	cf 92       	push	r12
     99e:	df 92       	push	r13
     9a0:	ff 92       	push	r15
     9a2:	0f 93       	push	r16
     9a4:	1f 93       	push	r17
     9a6:	df 93       	push	r29
     9a8:	cf 93       	push	r28
     9aa:	00 d0       	rcall	.+0      	; 0x9ac <ExtFlashPageDataRead+0x10>
     9ac:	0f 92       	push	r0
     9ae:	cd b7       	in	r28, 0x3d	; 61
     9b0:	de b7       	in	r29, 0x3e	; 62
     9b2:	18 2f       	mov	r17, r24
     9b4:	04 2f       	mov	r16, r20
     9b6:	f2 2e       	mov	r15, r18
     9b8:	80 e0       	ldi	r24, 0x00	; 0
     9ba:	5b 83       	std	Y+3, r21	; 0x03
     9bc:	69 83       	std	Y+1, r22	; 0x01
     9be:	7a 83       	std	Y+2, r23	; 0x02
     9c0:	0e 94 77 04 	call	0x8ee	; 0x8ee <ExtFlashCommandSet>
     9c4:	80 e0       	ldi	r24, 0x00	; 0
     9c6:	0e 94 83 04 	call	0x906	; 0x906 <ExtFlashAddressSet>
     9ca:	69 81       	ldd	r22, Y+1	; 0x01
     9cc:	86 2f       	mov	r24, r22
     9ce:	0e 94 83 04 	call	0x906	; 0x906 <ExtFlashAddressSet>
     9d2:	7a 81       	ldd	r23, Y+2	; 0x02
     9d4:	87 2f       	mov	r24, r23
     9d6:	0e 94 83 04 	call	0x906	; 0x906 <ExtFlashAddressSet>
     9da:	81 2f       	mov	r24, r17
     9dc:	81 70       	andi	r24, 0x01	; 1
     9de:	0e 94 83 04 	call	0x906	; 0x906 <ExtFlashAddressSet>
     9e2:	5b 81       	ldd	r21, Y+3	; 0x03
     9e4:	9f 9b       	sbis	0x13, 7	; 19
     9e6:	fe cf       	rjmp	.-4      	; 0x9e4 <ExtFlashPageDataRead+0x48>
     9e8:	40 2f       	mov	r20, r16
     9ea:	6a 01       	movw	r12, r20
     9ec:	05 c0       	rjmp	.+10     	; 0x9f8 <ExtFlashPageDataRead+0x5c>
     9ee:	0e 94 9a 04 	call	0x934	; 0x934 <ExtFlashDataRead>
     9f2:	f6 01       	movw	r30, r12
     9f4:	81 93       	st	Z+, r24
     9f6:	6f 01       	movw	r12, r30
     9f8:	8c 2d       	mov	r24, r12
     9fa:	80 1b       	sub	r24, r16
     9fc:	8f 15       	cp	r24, r15
     9fe:	b8 f3       	brcs	.-18     	; 0x9ee <ExtFlashPageDataRead+0x52>
     a00:	ad 9a       	sbi	0x15, 5	; 21
     a02:	0f 90       	pop	r0
     a04:	0f 90       	pop	r0
     a06:	0f 90       	pop	r0
     a08:	cf 91       	pop	r28
     a0a:	df 91       	pop	r29
     a0c:	1f 91       	pop	r17
     a0e:	0f 91       	pop	r16
     a10:	ff 90       	pop	r15
     a12:	df 90       	pop	r13
     a14:	cf 90       	pop	r12
     a16:	08 95       	ret

00000a18 <ExtFlashPageProgram>:
     a18:	cf 92       	push	r12
     a1a:	df 92       	push	r13
     a1c:	ef 92       	push	r14
     a1e:	ff 92       	push	r15
     a20:	0f 93       	push	r16
     a22:	1f 93       	push	r17
     a24:	df 93       	push	r29
     a26:	cf 93       	push	r28
     a28:	00 d0       	rcall	.+0      	; 0xa2a <ExtFlashPageProgram+0x12>
     a2a:	00 d0       	rcall	.+0      	; 0xa2c <ExtFlashPageProgram+0x14>
     a2c:	cd b7       	in	r28, 0x3d	; 61
     a2e:	de b7       	in	r29, 0x3e	; 62
     a30:	08 2f       	mov	r16, r24
     a32:	e2 2e       	mov	r14, r18
     a34:	80 e8       	ldi	r24, 0x80	; 128
     a36:	4b 83       	std	Y+3, r20	; 0x03
     a38:	5c 83       	std	Y+4, r21	; 0x04
     a3a:	69 83       	std	Y+1, r22	; 0x01
     a3c:	7a 83       	std	Y+2, r23	; 0x02
     a3e:	0e 94 77 04 	call	0x8ee	; 0x8ee <ExtFlashCommandSet>
     a42:	80 e0       	ldi	r24, 0x00	; 0
     a44:	0e 94 83 04 	call	0x906	; 0x906 <ExtFlashAddressSet>
     a48:	69 81       	ldd	r22, Y+1	; 0x01
     a4a:	86 2f       	mov	r24, r22
     a4c:	0e 94 83 04 	call	0x906	; 0x906 <ExtFlashAddressSet>
     a50:	7a 81       	ldd	r23, Y+2	; 0x02
     a52:	87 2f       	mov	r24, r23
     a54:	0e 94 83 04 	call	0x906	; 0x906 <ExtFlashAddressSet>
     a58:	80 2f       	mov	r24, r16
     a5a:	81 70       	andi	r24, 0x01	; 1
     a5c:	0e 94 83 04 	call	0x906	; 0x906 <ExtFlashAddressSet>
     a60:	4b 81       	ldd	r20, Y+3	; 0x03
     a62:	5c 81       	ldd	r21, Y+4	; 0x04
     a64:	04 2f       	mov	r16, r20
     a66:	15 2f       	mov	r17, r21
     a68:	cc 24       	eor	r12, r12
     a6a:	dd 24       	eor	r13, r13
     a6c:	ff 24       	eor	r15, r15
     a6e:	08 c0       	rjmp	.+16     	; 0xa80 <ExtFlashPageProgram+0x68>
     a70:	f8 01       	movw	r30, r16
     a72:	81 91       	ld	r24, Z+
     a74:	8f 01       	movw	r16, r30
     a76:	0e 94 8f 04 	call	0x91e	; 0x91e <ExtFlashDataSet>
     a7a:	08 94       	sec
     a7c:	c1 1c       	adc	r12, r1
     a7e:	d1 1c       	adc	r13, r1
     a80:	ce 14       	cp	r12, r14
     a82:	df 04       	cpc	r13, r15
     a84:	a8 f3       	brcs	.-22     	; 0xa70 <ExtFlashPageProgram+0x58>
     a86:	80 e1       	ldi	r24, 0x10	; 16
     a88:	0e 94 77 04 	call	0x8ee	; 0x8ee <ExtFlashCommandSet>
     a8c:	9f 9b       	sbis	0x13, 7	; 19
     a8e:	fe cf       	rjmp	.-4      	; 0xa8c <ExtFlashPageProgram+0x74>
     a90:	0e 94 ab 04 	call	0x956	; 0x956 <ExtFlashStatusRead>
     a94:	91 e0       	ldi	r25, 0x01	; 1
     a96:	80 fd       	sbrc	r24, 0
     a98:	90 e0       	ldi	r25, 0x00	; 0
     a9a:	89 2f       	mov	r24, r25
     a9c:	0f 90       	pop	r0
     a9e:	0f 90       	pop	r0
     aa0:	0f 90       	pop	r0
     aa2:	0f 90       	pop	r0
     aa4:	cf 91       	pop	r28
     aa6:	df 91       	pop	r29
     aa8:	1f 91       	pop	r17
     aaa:	0f 91       	pop	r16
     aac:	ff 90       	pop	r15
     aae:	ef 90       	pop	r14
     ab0:	df 90       	pop	r13
     ab2:	cf 90       	pop	r12
     ab4:	08 95       	ret

00000ab6 <ExtFlashBlockErase>:
     ab6:	ef 92       	push	r14
     ab8:	ff 92       	push	r15
     aba:	0f 93       	push	r16
     abc:	1f 93       	push	r17
     abe:	7c 01       	movw	r14, r24
     ac0:	85 e0       	ldi	r24, 0x05	; 5
     ac2:	ee 0c       	add	r14, r14
     ac4:	ff 1c       	adc	r15, r15
     ac6:	8a 95       	dec	r24
     ac8:	e1 f7       	brne	.-8      	; 0xac2 <ExtFlashBlockErase+0xc>
     aca:	80 e6       	ldi	r24, 0x60	; 96
     acc:	0e 94 77 04 	call	0x8ee	; 0x8ee <ExtFlashCommandSet>
     ad0:	8e 2d       	mov	r24, r14
     ad2:	0e 94 83 04 	call	0x906	; 0x906 <ExtFlashAddressSet>
     ad6:	8f 2d       	mov	r24, r15
     ad8:	0e 94 83 04 	call	0x906	; 0x906 <ExtFlashAddressSet>
     adc:	80 e0       	ldi	r24, 0x00	; 0
     ade:	0e 94 83 04 	call	0x906	; 0x906 <ExtFlashAddressSet>
     ae2:	80 ed       	ldi	r24, 0xD0	; 208
     ae4:	0e 94 77 04 	call	0x8ee	; 0x8ee <ExtFlashCommandSet>
     ae8:	00 00       	nop
     aea:	9f 9b       	sbis	0x13, 7	; 19
     aec:	fe cf       	rjmp	.-4      	; 0xaea <ExtFlashBlockErase+0x34>
     aee:	0e 94 ab 04 	call	0x956	; 0x956 <ExtFlashStatusRead>
     af2:	91 e0       	ldi	r25, 0x01	; 1
     af4:	80 fd       	sbrc	r24, 0
     af6:	90 e0       	ldi	r25, 0x00	; 0
     af8:	89 2f       	mov	r24, r25
     afa:	1f 91       	pop	r17
     afc:	0f 91       	pop	r16
     afe:	ff 90       	pop	r15
     b00:	ef 90       	pop	r14
     b02:	08 95       	ret

00000b04 <ExtFlashWholeErase>:
     b04:	cf 93       	push	r28
     b06:	df 93       	push	r29
     b08:	c0 e0       	ldi	r28, 0x00	; 0
     b0a:	d0 e0       	ldi	r29, 0x00	; 0
     b0c:	ce 01       	movw	r24, r28
     b0e:	0e 94 5b 05 	call	0xab6	; 0xab6 <ExtFlashBlockErase>
     b12:	88 23       	and	r24, r24
     b14:	39 f0       	breq	.+14     	; 0xb24 <ExtFlashWholeErase+0x20>
     b16:	21 96       	adiw	r28, 0x01	; 1
     b18:	88 e0       	ldi	r24, 0x08	; 8
     b1a:	c0 30       	cpi	r28, 0x00	; 0
     b1c:	d8 07       	cpc	r29, r24
     b1e:	b1 f7       	brne	.-20     	; 0xb0c <ExtFlashWholeErase+0x8>
     b20:	81 e0       	ldi	r24, 0x01	; 1
     b22:	01 c0       	rjmp	.+2      	; 0xb26 <ExtFlashWholeErase+0x22>
     b24:	80 e0       	ldi	r24, 0x00	; 0
     b26:	df 91       	pop	r29
     b28:	cf 91       	pop	r28
     b2a:	08 95       	ret

00000b2c <HttpRequestDeal>:
     b2c:	fc 01       	movw	r30, r24
     b2e:	63 30       	cpi	r22, 0x03	; 3
     b30:	71 05       	cpc	r23, r1
     b32:	18 f1       	brcs	.+70     	; 0xb7a <HttpRequestDeal+0x4e>
     b34:	80 81       	ld	r24, Z
     b36:	87 34       	cpi	r24, 0x47	; 71
     b38:	81 f4       	brne	.+32     	; 0xb5a <HttpRequestDeal+0x2e>
     b3a:	81 81       	ldd	r24, Z+1	; 0x01
     b3c:	85 34       	cpi	r24, 0x45	; 69
     b3e:	e9 f4       	brne	.+58     	; 0xb7a <HttpRequestDeal+0x4e>
     b40:	82 81       	ldd	r24, Z+2	; 0x02
     b42:	84 35       	cpi	r24, 0x54	; 84
     b44:	d1 f4       	brne	.+52     	; 0xb7a <HttpRequestDeal+0x4e>
     b46:	83 81       	ldd	r24, Z+3	; 0x03
     b48:	80 32       	cpi	r24, 0x20	; 32
     b4a:	99 f4       	brne	.+38     	; 0xb72 <HttpRequestDeal+0x46>
     b4c:	84 81       	ldd	r24, Z+4	; 0x04
     b4e:	8f 32       	cpi	r24, 0x2F	; 47
     b50:	81 f4       	brne	.+32     	; 0xb72 <HttpRequestDeal+0x46>
     b52:	85 81       	ldd	r24, Z+5	; 0x05
     b54:	80 32       	cpi	r24, 0x20	; 32
     b56:	69 f4       	brne	.+26     	; 0xb72 <HttpRequestDeal+0x46>
     b58:	0e c0       	rjmp	.+28     	; 0xb76 <HttpRequestDeal+0x4a>
     b5a:	80 35       	cpi	r24, 0x50	; 80
     b5c:	71 f4       	brne	.+28     	; 0xb7a <HttpRequestDeal+0x4e>
     b5e:	81 81       	ldd	r24, Z+1	; 0x01
     b60:	8f 34       	cpi	r24, 0x4F	; 79
     b62:	59 f4       	brne	.+22     	; 0xb7a <HttpRequestDeal+0x4e>
     b64:	82 81       	ldd	r24, Z+2	; 0x02
     b66:	83 35       	cpi	r24, 0x53	; 83
     b68:	41 f4       	brne	.+16     	; 0xb7a <HttpRequestDeal+0x4e>
     b6a:	83 81       	ldd	r24, Z+3	; 0x03
     b6c:	84 35       	cpi	r24, 0x54	; 84
     b6e:	29 f4       	brne	.+10     	; 0xb7a <HttpRequestDeal+0x4e>
     b70:	06 c0       	rjmp	.+12     	; 0xb7e <HttpRequestDeal+0x52>
     b72:	82 e0       	ldi	r24, 0x02	; 2
     b74:	08 95       	ret
     b76:	81 e0       	ldi	r24, 0x01	; 1
     b78:	08 95       	ret
     b7a:	80 e0       	ldi	r24, 0x00	; 0
     b7c:	08 95       	ret
     b7e:	83 e0       	ldi	r24, 0x03	; 3
     b80:	08 95       	ret

00000b82 <bufferDeal>:
     b82:	fc 01       	movw	r30, r24
     b84:	9b 01       	movw	r18, r22
     b86:	80 81       	ld	r24, Z
     b88:	8b 35       	cpi	r24, 0x5B	; 91
     b8a:	09 f0       	breq	.+2      	; 0xb8e <bufferDeal+0xc>
     b8c:	61 c0       	rjmp	.+194    	; 0xc50 <bufferDeal+0xce>
     b8e:	81 81       	ldd	r24, Z+1	; 0x01
     b90:	80 35       	cpi	r24, 0x50	; 80
     b92:	31 f5       	brne	.+76     	; 0xbe0 <bufferDeal+0x5e>
     b94:	94 81       	ldd	r25, Z+4	; 0x04
     b96:	80 e0       	ldi	r24, 0x00	; 0
     b98:	63 81       	ldd	r22, Z+3	; 0x03
     b9a:	70 e0       	ldi	r23, 0x00	; 0
     b9c:	68 2b       	or	r22, r24
     b9e:	79 2b       	or	r23, r25
     ba0:	88 27       	eor	r24, r24
     ba2:	77 fd       	sbrc	r23, 7
     ba4:	80 95       	com	r24
     ba6:	98 2f       	mov	r25, r24
     ba8:	42 81       	ldd	r20, Z+2	; 0x02
     baa:	42 30       	cpi	r20, 0x02	; 2
     bac:	49 f0       	breq	.+18     	; 0xbc0 <bufferDeal+0x3e>
     bae:	44 30       	cpi	r20, 0x04	; 4
     bb0:	61 f0       	breq	.+24     	; 0xbca <bufferDeal+0x48>
     bb2:	41 30       	cpi	r20, 0x01	; 1
     bb4:	71 f4       	brne	.+28     	; 0xbd2 <bufferDeal+0x50>
     bb6:	60 53       	subi	r22, 0x30	; 48
     bb8:	7f 4d       	sbci	r23, 0xDF	; 223
     bba:	8f 4f       	sbci	r24, 0xFF	; 255
     bbc:	9f 4f       	sbci	r25, 0xFF	; 255
     bbe:	09 c0       	rjmp	.+18     	; 0xbd2 <bufferDeal+0x50>
     bc0:	60 52       	subi	r22, 0x20	; 32
     bc2:	78 4b       	sbci	r23, 0xB8	; 184
     bc4:	8f 4f       	sbci	r24, 0xFF	; 255
     bc6:	9f 4f       	sbci	r25, 0xFF	; 255
     bc8:	04 c0       	rjmp	.+8      	; 0xbd2 <bufferDeal+0x50>
     bca:	60 5f       	subi	r22, 0xF0	; 240
     bcc:	78 4d       	sbci	r23, 0xD8	; 216
     bce:	8f 4f       	sbci	r24, 0xFF	; 255
     bd0:	9f 4f       	sbci	r25, 0xFF	; 255
     bd2:	af 01       	movw	r20, r30
     bd4:	4b 5f       	subi	r20, 0xFB	; 251
     bd6:	5f 4f       	sbci	r21, 0xFF	; 255
     bd8:	26 50       	subi	r18, 0x06	; 6
     bda:	0e 94 0c 05 	call	0xa18	; 0xa18 <ExtFlashPageProgram>
     bde:	38 c0       	rjmp	.+112    	; 0xc50 <bufferDeal+0xce>
     be0:	84 34       	cpi	r24, 0x44	; 68
     be2:	b1 f5       	brne	.+108    	; 0xc50 <bufferDeal+0xce>
     be4:	82 81       	ldd	r24, Z+2	; 0x02
     be6:	88 23       	and	r24, r24
     be8:	11 f0       	breq	.+4      	; 0xbee <bufferDeal+0x6c>
     bea:	81 e0       	ldi	r24, 0x01	; 1
     bec:	01 c0       	rjmp	.+2      	; 0xbf0 <bufferDeal+0x6e>
     bee:	82 e0       	ldi	r24, 0x02	; 2
     bf0:	80 93 96 02 	sts	0x0296, r24
     bf4:	83 81       	ldd	r24, Z+3	; 0x03
     bf6:	88 23       	and	r24, r24
     bf8:	11 f0       	breq	.+4      	; 0xbfe <bufferDeal+0x7c>
     bfa:	82 e0       	ldi	r24, 0x02	; 2
     bfc:	01 c0       	rjmp	.+2      	; 0xc00 <bufferDeal+0x7e>
     bfe:	81 e0       	ldi	r24, 0x01	; 1
     c00:	80 93 97 02 	sts	0x0297, r24
     c04:	84 81       	ldd	r24, Z+4	; 0x04
     c06:	88 23       	and	r24, r24
     c08:	11 f0       	breq	.+4      	; 0xc0e <bufferDeal+0x8c>
     c0a:	82 e0       	ldi	r24, 0x02	; 2
     c0c:	01 c0       	rjmp	.+2      	; 0xc10 <bufferDeal+0x8e>
     c0e:	81 e0       	ldi	r24, 0x01	; 1
     c10:	80 93 98 02 	sts	0x0298, r24
     c14:	85 81       	ldd	r24, Z+5	; 0x05
     c16:	80 93 9b 02 	sts	0x029B, r24
     c1a:	86 81       	ldd	r24, Z+6	; 0x06
     c1c:	80 93 9a 02 	sts	0x029A, r24
     c20:	87 81       	ldd	r24, Z+7	; 0x07
     c22:	80 93 9c 02 	sts	0x029C, r24
     c26:	80 85       	ldd	r24, Z+8	; 0x08
     c28:	80 93 9d 02 	sts	0x029D, r24
     c2c:	39 96       	adiw	r30, 0x09	; 9
     c2e:	ad ed       	ldi	r26, 0xDD	; 221
     c30:	b0 e0       	ldi	r27, 0x00	; 0
     c32:	c9 01       	movw	r24, r18
     c34:	8d 52       	subi	r24, 0x2D	; 45
     c36:	9f 4f       	sbci	r25, 0xFF	; 255
     c38:	02 c0       	rjmp	.+4      	; 0xc3e <bufferDeal+0xbc>
     c3a:	41 91       	ld	r20, Z+
     c3c:	4d 93       	st	X+, r20
     c3e:	a8 17       	cp	r26, r24
     c40:	b9 07       	cpc	r27, r25
     c42:	d9 f7       	brne	.-10     	; 0xc3a <bufferDeal+0xb8>
     c44:	2a 50       	subi	r18, 0x0A	; 10
     c46:	20 93 99 02 	sts	0x0299, r18
     c4a:	81 e0       	ldi	r24, 0x01	; 1
     c4c:	80 93 9e 02 	sts	0x029E, r24
     c50:	81 e0       	ldi	r24, 0x01	; 1
     c52:	08 95       	ret

00000c54 <server>:
     c54:	cf 93       	push	r28
     c56:	df 93       	push	r29
     c58:	a2 c0       	rjmp	.+324    	; 0xd9e <server+0x14a>
     c5a:	83 ea       	ldi	r24, 0xA3	; 163
     c5c:	92 e0       	ldi	r25, 0x02	; 2
     c5e:	0e 94 94 07 	call	0xf28	; 0xf28 <isArpAndTargetMyIp>
     c62:	88 23       	and	r24, r24
     c64:	29 f0       	breq	.+10     	; 0xc70 <server+0x1c>
     c66:	83 ea       	ldi	r24, 0xA3	; 163
     c68:	92 e0       	ldi	r25, 0x02	; 2
     c6a:	0e 94 b0 07 	call	0xf60	; 0xf60 <sendArpAnswers>
     c6e:	97 c0       	rjmp	.+302    	; 0xd9e <server+0x14a>
     c70:	83 ea       	ldi	r24, 0xA3	; 163
     c72:	92 e0       	ldi	r25, 0x02	; 2
     c74:	0e 94 6a 08 	call	0x10d4	; 0x10d4 <isUdpPacket>
     c78:	88 23       	and	r24, r24
     c7a:	49 f1       	breq	.+82     	; 0xcce <server+0x7a>
     c7c:	83 ea       	ldi	r24, 0xA3	; 163
     c7e:	92 e0       	ldi	r25, 0x02	; 2
     c80:	0e 94 79 08 	call	0x10f2	; 0x10f2 <getUdpPort>
     c84:	23 ec       	ldi	r18, 0xC3	; 195
     c86:	8b 3c       	cpi	r24, 0xCB	; 203
     c88:	92 07       	cpc	r25, r18
     c8a:	c1 f4       	brne	.+48     	; 0xcbc <server+0x68>
     c8c:	83 ea       	ldi	r24, 0xA3	; 163
     c8e:	92 e0       	ldi	r25, 0x02	; 2
     c90:	0e 94 8d 08 	call	0x111a	; 0x111a <getUdpDataPointer>
     c94:	ec 01       	movw	r28, r24
     c96:	83 ea       	ldi	r24, 0xA3	; 163
     c98:	92 e0       	ldi	r25, 0x02	; 2
     c9a:	0e 94 03 08 	call	0x1006	; 0x1006 <getIpPacketLength>
     c9e:	bc 01       	movw	r22, r24
     ca0:	6c 51       	subi	r22, 0x1C	; 28
     ca2:	70 40       	sbci	r23, 0x00	; 0
     ca4:	ce 01       	movw	r24, r28
     ca6:	0e 94 c1 05 	call	0xb82	; 0xb82 <bufferDeal>
     caa:	88 23       	and	r24, r24
     cac:	39 f0       	breq	.+14     	; 0xcbc <server+0x68>
     cae:	82 e0       	ldi	r24, 0x02	; 2
     cb0:	90 e0       	ldi	r25, 0x00	; 0
     cb2:	63 ea       	ldi	r22, 0xA3	; 163
     cb4:	72 e0       	ldi	r23, 0x02	; 2
     cb6:	4d e1       	ldi	r20, 0x1D	; 29
     cb8:	51 e0       	ldi	r21, 0x01	; 1
     cba:	06 c0       	rjmp	.+12     	; 0xcc8 <server+0x74>
     cbc:	85 e0       	ldi	r24, 0x05	; 5
     cbe:	90 e0       	ldi	r25, 0x00	; 0
     cc0:	63 ea       	ldi	r22, 0xA3	; 163
     cc2:	72 e0       	ldi	r23, 0x02	; 2
     cc4:	40 e2       	ldi	r20, 0x20	; 32
     cc6:	51 e0       	ldi	r21, 0x01	; 1
     cc8:	0e 94 92 08 	call	0x1124	; 0x1124 <makeUdpPacket>
     ccc:	68 c0       	rjmp	.+208    	; 0xd9e <server+0x14a>
     cce:	83 ea       	ldi	r24, 0xA3	; 163
     cd0:	92 e0       	ldi	r25, 0x02	; 2
     cd2:	0e 94 cd 08 	call	0x119a	; 0x119a <isTcpAndSyn>
     cd6:	88 23       	and	r24, r24
     cd8:	79 f0       	breq	.+30     	; 0xcf8 <server+0xa4>
     cda:	83 ea       	ldi	r24, 0xA3	; 163
     cdc:	92 e0       	ldi	r25, 0x02	; 2
     cde:	0e 94 fb 08 	call	0x11f6	; 0x11f6 <getTcpPort>
     ce2:	80 35       	cpi	r24, 0x50	; 80
     ce4:	91 05       	cpc	r25, r1
     ce6:	09 f0       	breq	.+2      	; 0xcea <server+0x96>
     ce8:	5a c0       	rjmp	.+180    	; 0xd9e <server+0x14a>
     cea:	83 ea       	ldi	r24, 0xA3	; 163
     cec:	92 e0       	ldi	r25, 0x02	; 2
     cee:	62 e1       	ldi	r22, 0x12	; 18
     cf0:	48 e1       	ldi	r20, 0x18	; 24
     cf2:	50 e0       	ldi	r21, 0x00	; 0
     cf4:	21 e0       	ldi	r18, 0x01	; 1
     cf6:	51 c0       	rjmp	.+162    	; 0xd9a <server+0x146>
     cf8:	83 ea       	ldi	r24, 0xA3	; 163
     cfa:	92 e0       	ldi	r25, 0x02	; 2
     cfc:	0e 94 ed 08 	call	0x11da	; 0x11da <isTcpAndRequireData>
     d00:	88 23       	and	r24, r24
     d02:	c1 f1       	breq	.+112    	; 0xd74 <server+0x120>
     d04:	83 ea       	ldi	r24, 0xA3	; 163
     d06:	92 e0       	ldi	r25, 0x02	; 2
     d08:	0e 94 fb 08 	call	0x11f6	; 0x11f6 <getTcpPort>
     d0c:	80 35       	cpi	r24, 0x50	; 80
     d0e:	91 05       	cpc	r25, r1
     d10:	09 f0       	breq	.+2      	; 0xd14 <server+0xc0>
     d12:	45 c0       	rjmp	.+138    	; 0xd9e <server+0x14a>
     d14:	83 ea       	ldi	r24, 0xA3	; 163
     d16:	92 e0       	ldi	r25, 0x02	; 2
     d18:	0e 94 0b 09 	call	0x1216	; 0x1216 <getTcpDataPointer>
     d1c:	ec 01       	movw	r28, r24
     d1e:	83 ea       	ldi	r24, 0xA3	; 163
     d20:	92 e0       	ldi	r25, 0x02	; 2
     d22:	0e 94 03 08 	call	0x1006	; 0x1006 <getIpPacketLength>
     d26:	bc 01       	movw	r22, r24
     d28:	68 52       	subi	r22, 0x28	; 40
     d2a:	70 40       	sbci	r23, 0x00	; 0
     d2c:	ce 01       	movw	r24, r28
     d2e:	0e 94 96 05 	call	0xb2c	; 0xb2c <HttpRequestDeal>
     d32:	81 30       	cpi	r24, 0x01	; 1
     d34:	19 f0       	breq	.+6      	; 0xd3c <server+0xe8>
     d36:	82 30       	cpi	r24, 0x02	; 2
     d38:	91 f5       	brne	.+100    	; 0xd9e <server+0x14a>
     d3a:	0e c0       	rjmp	.+28     	; 0xd58 <server+0x104>
     d3c:	83 ea       	ldi	r24, 0xA3	; 163
     d3e:	92 e0       	ldi	r25, 0x02	; 2
     d40:	66 e2       	ldi	r22, 0x26	; 38
     d42:	71 e0       	ldi	r23, 0x01	; 1
     d44:	4a ef       	ldi	r20, 0xFA	; 250
     d46:	50 e0       	ldi	r21, 0x00	; 0
     d48:	0e 94 17 09 	call	0x122e	; 0x122e <makeTcpPacket>
     d4c:	83 ea       	ldi	r24, 0xA3	; 163
     d4e:	92 e0       	ldi	r25, 0x02	; 2
     d50:	68 e1       	ldi	r22, 0x18	; 24
     d52:	4e e0       	ldi	r20, 0x0E	; 14
     d54:	51 e0       	ldi	r21, 0x01	; 1
     d56:	20 c0       	rjmp	.+64     	; 0xd98 <server+0x144>
     d58:	83 ea       	ldi	r24, 0xA3	; 163
     d5a:	92 e0       	ldi	r25, 0x02	; 2
     d5c:	60 e2       	ldi	r22, 0x20	; 32
     d5e:	72 e0       	ldi	r23, 0x02	; 2
     d60:	4c e9       	ldi	r20, 0x9C	; 156
     d62:	50 e0       	ldi	r21, 0x00	; 0
     d64:	0e 94 17 09 	call	0x122e	; 0x122e <makeTcpPacket>
     d68:	83 ea       	ldi	r24, 0xA3	; 163
     d6a:	92 e0       	ldi	r25, 0x02	; 2
     d6c:	68 e1       	ldi	r22, 0x18	; 24
     d6e:	40 eb       	ldi	r20, 0xB0	; 176
     d70:	50 e0       	ldi	r21, 0x00	; 0
     d72:	12 c0       	rjmp	.+36     	; 0xd98 <server+0x144>
     d74:	83 ea       	ldi	r24, 0xA3	; 163
     d76:	92 e0       	ldi	r25, 0x02	; 2
     d78:	0e 94 dd 08 	call	0x11ba	; 0x11ba <isTcpAndFinAck>
     d7c:	88 23       	and	r24, r24
     d7e:	79 f0       	breq	.+30     	; 0xd9e <server+0x14a>
     d80:	83 ea       	ldi	r24, 0xA3	; 163
     d82:	92 e0       	ldi	r25, 0x02	; 2
     d84:	0e 94 fb 08 	call	0x11f6	; 0x11f6 <getTcpPort>
     d88:	80 35       	cpi	r24, 0x50	; 80
     d8a:	91 05       	cpc	r25, r1
     d8c:	41 f4       	brne	.+16     	; 0xd9e <server+0x14a>
     d8e:	83 ea       	ldi	r24, 0xA3	; 163
     d90:	92 e0       	ldi	r25, 0x02	; 2
     d92:	61 e1       	ldi	r22, 0x11	; 17
     d94:	44 e1       	ldi	r20, 0x14	; 20
     d96:	50 e0       	ldi	r21, 0x00	; 0
     d98:	20 e0       	ldi	r18, 0x00	; 0
     d9a:	0e 94 26 09 	call	0x124c	; 0x124c <makeTcpHeader>
     d9e:	80 e0       	ldi	r24, 0x00	; 0
     da0:	94 e0       	ldi	r25, 0x04	; 4
     da2:	63 ea       	ldi	r22, 0xA3	; 163
     da4:	72 e0       	ldi	r23, 0x02	; 2
     da6:	0e 94 5c 0d 	call	0x1ab8	; 0x1ab8 <enc28j60_receivePacket>
     daa:	00 97       	sbiw	r24, 0x00	; 0
     dac:	09 f0       	breq	.+2      	; 0xdb0 <server+0x15c>
     dae:	55 cf       	rjmp	.-342    	; 0xc5a <server+0x6>
     db0:	df 91       	pop	r29
     db2:	cf 91       	pop	r28
     db4:	08 95       	ret

00000db6 <I2C_init>:
     db6:	84 b3       	in	r24, 0x14	; 20
     db8:	8c 7f       	andi	r24, 0xFC	; 252
     dba:	84 bb       	out	0x14, r24	; 20
     dbc:	a8 9a       	sbi	0x15, 0	; 21
     dbe:	88 e4       	ldi	r24, 0x48	; 72
     dc0:	80 b9       	out	0x00, r24	; 0
     dc2:	11 b8       	out	0x01, r1	; 1
     dc4:	08 95       	ret

00000dc6 <ERROR>:
     dc6:	1f 93       	push	r17
     dc8:	cf 93       	push	r28
     dca:	df 93       	push	r29
     dcc:	18 2f       	mov	r17, r24
     dce:	85 e2       	ldi	r24, 0x25	; 37
     dd0:	92 e0       	ldi	r25, 0x02	; 2
     dd2:	0e 94 0b 16 	call	0x2c16	; 0x2c16 <USART_StringPut>
     dd6:	13 30       	cpi	r17, 0x03	; 3
     dd8:	41 f1       	breq	.+80     	; 0xe2a <ERROR+0x64>
     dda:	14 30       	cpi	r17, 0x04	; 4
     ddc:	28 f4       	brcc	.+10     	; 0xde8 <ERROR+0x22>
     dde:	11 30       	cpi	r17, 0x01	; 1
     de0:	51 f0       	breq	.+20     	; 0xdf6 <ERROR+0x30>
     de2:	12 30       	cpi	r17, 0x02	; 2
     de4:	79 f5       	brne	.+94     	; 0xe44 <ERROR+0x7e>
     de6:	1e c0       	rjmp	.+60     	; 0xe24 <ERROR+0x5e>
     de8:	15 30       	cpi	r17, 0x05	; 5
     dea:	29 f1       	breq	.+74     	; 0xe36 <ERROR+0x70>
     dec:	15 30       	cpi	r17, 0x05	; 5
     dee:	00 f1       	brcs	.+64     	; 0xe30 <ERROR+0x6a>
     df0:	16 30       	cpi	r17, 0x06	; 6
     df2:	41 f5       	brne	.+80     	; 0xe44 <ERROR+0x7e>
     df4:	23 c0       	rjmp	.+70     	; 0xe3c <ERROR+0x76>
     df6:	8f e2       	ldi	r24, 0x2F	; 47
     df8:	92 e0       	ldi	r25, 0x02	; 2
     dfa:	0e 94 0b 16 	call	0x2c16	; 0x2c16 <USART_StringPut>
     dfe:	c0 e0       	ldi	r28, 0x00	; 0
     e00:	d0 e0       	ldi	r29, 0x00	; 0
     e02:	81 b1       	in	r24, 0x01	; 1
     e04:	90 e0       	ldi	r25, 0x00	; 0
     e06:	0c 2e       	mov	r0, r28
     e08:	02 c0       	rjmp	.+4      	; 0xe0e <ERROR+0x48>
     e0a:	95 95       	asr	r25
     e0c:	87 95       	ror	r24
     e0e:	0a 94       	dec	r0
     e10:	e2 f7       	brpl	.-8      	; 0xe0a <ERROR+0x44>
     e12:	81 70       	andi	r24, 0x01	; 1
     e14:	80 5d       	subi	r24, 0xD0	; 208
     e16:	0e 94 00 16 	call	0x2c00	; 0x2c00 <USART_Transmit>
     e1a:	21 96       	adiw	r28, 0x01	; 1
     e1c:	c8 30       	cpi	r28, 0x08	; 8
     e1e:	d1 05       	cpc	r29, r1
     e20:	81 f7       	brne	.-32     	; 0xe02 <ERROR+0x3c>
     e22:	10 c0       	rjmp	.+32     	; 0xe44 <ERROR+0x7e>
     e24:	8b e3       	ldi	r24, 0x3B	; 59
     e26:	92 e0       	ldi	r25, 0x02	; 2
     e28:	0b c0       	rjmp	.+22     	; 0xe40 <ERROR+0x7a>
     e2a:	89 e4       	ldi	r24, 0x49	; 73
     e2c:	92 e0       	ldi	r25, 0x02	; 2
     e2e:	08 c0       	rjmp	.+16     	; 0xe40 <ERROR+0x7a>
     e30:	8a e5       	ldi	r24, 0x5A	; 90
     e32:	92 e0       	ldi	r25, 0x02	; 2
     e34:	05 c0       	rjmp	.+10     	; 0xe40 <ERROR+0x7a>
     e36:	8a e6       	ldi	r24, 0x6A	; 106
     e38:	92 e0       	ldi	r25, 0x02	; 2
     e3a:	02 c0       	rjmp	.+4      	; 0xe40 <ERROR+0x7a>
     e3c:	8e e7       	ldi	r24, 0x7E	; 126
     e3e:	92 e0       	ldi	r25, 0x02	; 2
     e40:	0e 94 0b 16 	call	0x2c16	; 0x2c16 <USART_StringPut>
     e44:	df 91       	pop	r29
     e46:	cf 91       	pop	r28
     e48:	1f 91       	pop	r17
     e4a:	08 95       	ret

00000e4c <I2C_Send_M_Start>:
     e4c:	84 e2       	ldi	r24, 0x24	; 36
     e4e:	86 bf       	out	0x36, r24	; 54
     e50:	86 b7       	in	r24, 0x36	; 54
     e52:	80 68       	ori	r24, 0x80	; 128
     e54:	86 bf       	out	0x36, r24	; 54
     e56:	06 b6       	in	r0, 0x36	; 54
     e58:	07 fe       	sbrs	r0, 7
     e5a:	fd cf       	rjmp	.-6      	; 0xe56 <I2C_Send_M_Start+0xa>
     e5c:	81 b1       	in	r24, 0x01	; 1
     e5e:	88 7f       	andi	r24, 0xF8	; 248
     e60:	88 30       	cpi	r24, 0x08	; 8
     e62:	39 f0       	breq	.+14     	; 0xe72 <I2C_Send_M_Start+0x26>
     e64:	81 b1       	in	r24, 0x01	; 1
     e66:	88 7f       	andi	r24, 0xF8	; 248
     e68:	80 31       	cpi	r24, 0x10	; 16
     e6a:	19 f0       	breq	.+6      	; 0xe72 <I2C_Send_M_Start+0x26>
     e6c:	81 e0       	ldi	r24, 0x01	; 1
     e6e:	0e 94 e3 06 	call	0xdc6	; 0xdc6 <ERROR>
     e72:	08 95       	ret

00000e74 <I2C_Send_M_ReStart>:
     e74:	84 ea       	ldi	r24, 0xA4	; 164
     e76:	86 bf       	out	0x36, r24	; 54
     e78:	06 b6       	in	r0, 0x36	; 54
     e7a:	07 fe       	sbrs	r0, 7
     e7c:	fd cf       	rjmp	.-6      	; 0xe78 <I2C_Send_M_ReStart+0x4>
     e7e:	81 b1       	in	r24, 0x01	; 1
     e80:	88 7f       	andi	r24, 0xF8	; 248
     e82:	80 31       	cpi	r24, 0x10	; 16
     e84:	19 f0       	breq	.+6      	; 0xe8c <I2C_Send_M_ReStart+0x18>
     e86:	82 e0       	ldi	r24, 0x02	; 2
     e88:	0e 94 e3 06 	call	0xdc6	; 0xdc6 <ERROR>
     e8c:	08 95       	ret

00000e8e <I2C_Send_M_Addr>:
     e8e:	83 b9       	out	0x03, r24	; 3
     e90:	94 e8       	ldi	r25, 0x84	; 132
     e92:	96 bf       	out	0x36, r25	; 54
     e94:	06 b6       	in	r0, 0x36	; 54
     e96:	07 fe       	sbrs	r0, 7
     e98:	fd cf       	rjmp	.-6      	; 0xe94 <I2C_Send_M_Addr+0x6>
     e9a:	80 fd       	sbrc	r24, 0
     e9c:	08 c0       	rjmp	.+16     	; 0xeae <I2C_Send_M_Addr+0x20>
     e9e:	81 b1       	in	r24, 0x01	; 1
     ea0:	88 7f       	andi	r24, 0xF8	; 248
     ea2:	88 31       	cpi	r24, 0x18	; 24
     ea4:	59 f0       	breq	.+22     	; 0xebc <I2C_Send_M_Addr+0x2e>
     ea6:	83 e0       	ldi	r24, 0x03	; 3
     ea8:	0e 94 e3 06 	call	0xdc6	; 0xdc6 <ERROR>
     eac:	08 95       	ret
     eae:	81 b1       	in	r24, 0x01	; 1
     eb0:	88 7f       	andi	r24, 0xF8	; 248
     eb2:	80 34       	cpi	r24, 0x40	; 64
     eb4:	19 f0       	breq	.+6      	; 0xebc <I2C_Send_M_Addr+0x2e>
     eb6:	84 e0       	ldi	r24, 0x04	; 4
     eb8:	0e 94 e3 06 	call	0xdc6	; 0xdc6 <ERROR>
     ebc:	08 95       	ret

00000ebe <I2C_Send_M_Data>:
     ebe:	83 b9       	out	0x03, r24	; 3
     ec0:	84 e8       	ldi	r24, 0x84	; 132
     ec2:	86 bf       	out	0x36, r24	; 54
     ec4:	06 b6       	in	r0, 0x36	; 54
     ec6:	07 fe       	sbrs	r0, 7
     ec8:	fd cf       	rjmp	.-6      	; 0xec4 <I2C_Send_M_Data+0x6>
     eca:	81 b1       	in	r24, 0x01	; 1
     ecc:	88 7f       	andi	r24, 0xF8	; 248
     ece:	88 32       	cpi	r24, 0x28	; 40
     ed0:	19 f0       	breq	.+6      	; 0xed8 <I2C_Send_M_Data+0x1a>
     ed2:	85 e0       	ldi	r24, 0x05	; 5
     ed4:	0e 94 e3 06 	call	0xdc6	; 0xdc6 <ERROR>
     ed8:	08 95       	ret

00000eda <I2C_Send_M_Stop>:
     eda:	84 e9       	ldi	r24, 0x94	; 148
     edc:	86 bf       	out	0x36, r24	; 54
     ede:	08 95       	ret

00000ee0 <I2C_Send_M_Read>:
     ee0:	84 ec       	ldi	r24, 0xC4	; 196
     ee2:	86 bf       	out	0x36, r24	; 54
     ee4:	06 b6       	in	r0, 0x36	; 54
     ee6:	07 fe       	sbrs	r0, 7
     ee8:	fd cf       	rjmp	.-6      	; 0xee4 <I2C_Send_M_Read+0x4>
     eea:	81 b1       	in	r24, 0x01	; 1
     eec:	88 7f       	andi	r24, 0xF8	; 248
     eee:	80 35       	cpi	r24, 0x50	; 80
     ef0:	19 f0       	breq	.+6      	; 0xef8 <I2C_Send_M_Read+0x18>
     ef2:	86 e0       	ldi	r24, 0x06	; 6
     ef4:	0e 94 e3 06 	call	0xdc6	; 0xdc6 <ERROR>
     ef8:	83 b1       	in	r24, 0x03	; 3
     efa:	08 95       	ret

00000efc <makeEthernetHeader>:
     efc:	fc 01       	movw	r30, r24
     efe:	dc 01       	movw	r26, r24
     f00:	80 e0       	ldi	r24, 0x00	; 0
     f02:	16 96       	adiw	r26, 0x06	; 6
     f04:	9c 91       	ld	r25, X
     f06:	16 97       	sbiw	r26, 0x06	; 6
     f08:	9d 93       	st	X+, r25
     f0a:	8f 5f       	subi	r24, 0xFF	; 255
     f0c:	86 30       	cpi	r24, 0x06	; 6
     f0e:	c9 f7       	brne	.-14     	; 0xf02 <makeEthernetHeader+0x6>
     f10:	16 82       	std	Z+6, r1	; 0x06
     f12:	84 e0       	ldi	r24, 0x04	; 4
     f14:	87 83       	std	Z+7, r24	; 0x07
     f16:	83 ea       	ldi	r24, 0xA3	; 163
     f18:	80 87       	std	Z+8, r24	; 0x08
     f1a:	8b e5       	ldi	r24, 0x5B	; 91
     f1c:	81 87       	std	Z+9, r24	; 0x09
     f1e:	80 ee       	ldi	r24, 0xE0	; 224
     f20:	82 87       	std	Z+10, r24	; 0x0a
     f22:	8b e3       	ldi	r24, 0x3B	; 59
     f24:	83 87       	std	Z+11, r24	; 0x0b
     f26:	08 95       	ret

00000f28 <isArpAndTargetMyIp>:
     f28:	fc 01       	movw	r30, r24
     f2a:	34 85       	ldd	r19, Z+12	; 0x0c
     f2c:	20 e0       	ldi	r18, 0x00	; 0
     f2e:	85 85       	ldd	r24, Z+13	; 0x0d
     f30:	90 e0       	ldi	r25, 0x00	; 0
     f32:	82 2b       	or	r24, r18
     f34:	93 2b       	or	r25, r19
     f36:	28 e0       	ldi	r18, 0x08	; 8
     f38:	86 30       	cpi	r24, 0x06	; 6
     f3a:	92 07       	cpc	r25, r18
     f3c:	69 f4       	brne	.+26     	; 0xf58 <isArpAndTargetMyIp+0x30>
     f3e:	86 a1       	ldd	r24, Z+38	; 0x26
     f40:	8c 3a       	cpi	r24, 0xAC	; 172
     f42:	51 f4       	brne	.+20     	; 0xf58 <isArpAndTargetMyIp+0x30>
     f44:	87 a1       	ldd	r24, Z+39	; 0x27
     f46:	80 31       	cpi	r24, 0x10	; 16
     f48:	39 f4       	brne	.+14     	; 0xf58 <isArpAndTargetMyIp+0x30>
     f4a:	80 a5       	ldd	r24, Z+40	; 0x28
     f4c:	8f 30       	cpi	r24, 0x0F	; 15
     f4e:	31 f4       	brne	.+12     	; 0xf5c <isArpAndTargetMyIp+0x34>
     f50:	81 e0       	ldi	r24, 0x01	; 1
     f52:	91 a5       	ldd	r25, Z+41	; 0x29
     f54:	91 30       	cpi	r25, 0x01	; 1
     f56:	19 f0       	breq	.+6      	; 0xf5e <isArpAndTargetMyIp+0x36>
     f58:	80 e0       	ldi	r24, 0x00	; 0
     f5a:	08 95       	ret
     f5c:	80 e0       	ldi	r24, 0x00	; 0
     f5e:	08 95       	ret

00000f60 <sendArpAnswers>:
     f60:	cf 93       	push	r28
     f62:	df 93       	push	r29
     f64:	ec 01       	movw	r28, r24
     f66:	1e 86       	std	Y+14, r1	; 0x0e
     f68:	81 e0       	ldi	r24, 0x01	; 1
     f6a:	8f 87       	std	Y+15, r24	; 0x0f
     f6c:	88 e0       	ldi	r24, 0x08	; 8
     f6e:	88 8b       	std	Y+16, r24	; 0x10
     f70:	19 8a       	std	Y+17, r1	; 0x11
     f72:	86 e0       	ldi	r24, 0x06	; 6
     f74:	8a 8b       	std	Y+18, r24	; 0x12
     f76:	84 e0       	ldi	r24, 0x04	; 4
     f78:	8b 8b       	std	Y+19, r24	; 0x13
     f7a:	1c 8a       	std	Y+20, r1	; 0x14
     f7c:	82 e0       	ldi	r24, 0x02	; 2
     f7e:	8d 8b       	std	Y+21, r24	; 0x15
     f80:	fe 01       	movw	r30, r28
     f82:	76 96       	adiw	r30, 0x16	; 22
     f84:	80 e0       	ldi	r24, 0x00	; 0
     f86:	91 91       	ld	r25, Z+
     f88:	91 87       	std	Z+9, r25	; 0x09
     f8a:	8f 5f       	subi	r24, 0xFF	; 255
     f8c:	8a 30       	cpi	r24, 0x0A	; 10
     f8e:	d9 f7       	brne	.-10     	; 0xf86 <sendArpAnswers+0x26>
     f90:	1e 8a       	std	Y+22, r1	; 0x16
     f92:	84 e0       	ldi	r24, 0x04	; 4
     f94:	8f 8b       	std	Y+23, r24	; 0x17
     f96:	83 ea       	ldi	r24, 0xA3	; 163
     f98:	88 8f       	std	Y+24, r24	; 0x18
     f9a:	8b e5       	ldi	r24, 0x5B	; 91
     f9c:	89 8f       	std	Y+25, r24	; 0x19
     f9e:	80 ee       	ldi	r24, 0xE0	; 224
     fa0:	8a 8f       	std	Y+26, r24	; 0x1a
     fa2:	8b e3       	ldi	r24, 0x3B	; 59
     fa4:	8b 8f       	std	Y+27, r24	; 0x1b
     fa6:	8c ea       	ldi	r24, 0xAC	; 172
     fa8:	8c 8f       	std	Y+28, r24	; 0x1c
     faa:	80 e1       	ldi	r24, 0x10	; 16
     fac:	8d 8f       	std	Y+29, r24	; 0x1d
     fae:	8f e0       	ldi	r24, 0x0F	; 15
     fb0:	8e 8f       	std	Y+30, r24	; 0x1e
     fb2:	81 e0       	ldi	r24, 0x01	; 1
     fb4:	8f 8f       	std	Y+31, r24	; 0x1f
     fb6:	ce 01       	movw	r24, r28
     fb8:	0e 94 7e 07 	call	0xefc	; 0xefc <makeEthernetHeader>
     fbc:	8a e2       	ldi	r24, 0x2A	; 42
     fbe:	90 e0       	ldi	r25, 0x00	; 0
     fc0:	be 01       	movw	r22, r28
     fc2:	40 e0       	ldi	r20, 0x00	; 0
     fc4:	0e 94 08 0e 	call	0x1c10	; 0x1c10 <enc28j60_sendPacket>
     fc8:	df 91       	pop	r29
     fca:	cf 91       	pop	r28
     fcc:	08 95       	ret

00000fce <isIpPacketAndTargetMyIp>:
     fce:	fc 01       	movw	r30, r24
     fd0:	85 85       	ldd	r24, Z+13	; 0x0d
     fd2:	90 e0       	ldi	r25, 0x00	; 0
     fd4:	34 85       	ldd	r19, Z+12	; 0x0c
     fd6:	20 e0       	ldi	r18, 0x00	; 0
     fd8:	82 2b       	or	r24, r18
     fda:	93 2b       	or	r25, r19
     fdc:	28 e0       	ldi	r18, 0x08	; 8
     fde:	80 30       	cpi	r24, 0x00	; 0
     fe0:	92 07       	cpc	r25, r18
     fe2:	69 f4       	brne	.+26     	; 0xffe <isIpPacketAndTargetMyIp+0x30>
     fe4:	86 8d       	ldd	r24, Z+30	; 0x1e
     fe6:	8c 3a       	cpi	r24, 0xAC	; 172
     fe8:	51 f4       	brne	.+20     	; 0xffe <isIpPacketAndTargetMyIp+0x30>
     fea:	87 8d       	ldd	r24, Z+31	; 0x1f
     fec:	80 31       	cpi	r24, 0x10	; 16
     fee:	39 f4       	brne	.+14     	; 0xffe <isIpPacketAndTargetMyIp+0x30>
     ff0:	80 a1       	ldd	r24, Z+32	; 0x20
     ff2:	8f 30       	cpi	r24, 0x0F	; 15
     ff4:	31 f4       	brne	.+12     	; 0x1002 <isIpPacketAndTargetMyIp+0x34>
     ff6:	81 e0       	ldi	r24, 0x01	; 1
     ff8:	91 a1       	ldd	r25, Z+33	; 0x21
     ffa:	91 30       	cpi	r25, 0x01	; 1
     ffc:	19 f0       	breq	.+6      	; 0x1004 <isIpPacketAndTargetMyIp+0x36>
     ffe:	80 e0       	ldi	r24, 0x00	; 0
    1000:	08 95       	ret
    1002:	80 e0       	ldi	r24, 0x00	; 0
    1004:	08 95       	ret

00001006 <getIpPacketLength>:
    1006:	cf 93       	push	r28
    1008:	df 93       	push	r29
    100a:	ec 01       	movw	r28, r24
    100c:	0e 94 e7 07 	call	0xfce	; 0xfce <isIpPacketAndTargetMyIp>
    1010:	88 23       	and	r24, r24
    1012:	39 f0       	breq	.+14     	; 0x1022 <getIpPacketLength+0x1c>
    1014:	98 89       	ldd	r25, Y+16	; 0x10
    1016:	80 e0       	ldi	r24, 0x00	; 0
    1018:	29 89       	ldd	r18, Y+17	; 0x11
    101a:	30 e0       	ldi	r19, 0x00	; 0
    101c:	28 2b       	or	r18, r24
    101e:	39 2b       	or	r19, r25
    1020:	02 c0       	rjmp	.+4      	; 0x1026 <getIpPacketLength+0x20>
    1022:	20 e0       	ldi	r18, 0x00	; 0
    1024:	30 e0       	ldi	r19, 0x00	; 0
    1026:	c9 01       	movw	r24, r18
    1028:	df 91       	pop	r29
    102a:	cf 91       	pop	r28
    102c:	08 95       	ret

0000102e <sendIpPacket>:
    102e:	0f 93       	push	r16
    1030:	1f 93       	push	r17
    1032:	df 93       	push	r29
    1034:	cf 93       	push	r28
    1036:	00 d0       	rcall	.+0      	; 0x1038 <sendIpPacket+0xa>
    1038:	0f 92       	push	r0
    103a:	cd b7       	in	r28, 0x3d	; 61
    103c:	de b7       	in	r29, 0x3e	; 62
    103e:	8c 01       	movw	r16, r24
    1040:	85 e4       	ldi	r24, 0x45	; 69
    1042:	fb 01       	movw	r30, r22
    1044:	86 87       	std	Z+14, r24	; 0x0e
    1046:	17 86       	std	Z+15, r1	; 0x0f
    1048:	c8 01       	movw	r24, r16
    104a:	44 96       	adiw	r24, 0x14	; 20
    104c:	90 8b       	std	Z+16, r25	; 0x10
    104e:	80 2f       	mov	r24, r16
    1050:	8c 5e       	subi	r24, 0xEC	; 236
    1052:	81 8b       	std	Z+17, r24	; 0x11
    1054:	80 91 91 02 	lds	r24, 0x0291
    1058:	90 91 92 02 	lds	r25, 0x0292
    105c:	92 8b       	std	Z+18, r25	; 0x12
    105e:	83 8b       	std	Z+19, r24	; 0x13
    1060:	01 96       	adiw	r24, 0x01	; 1
    1062:	90 93 92 02 	sts	0x0292, r25
    1066:	80 93 91 02 	sts	0x0291, r24
    106a:	80 e4       	ldi	r24, 0x40	; 64
    106c:	84 8b       	std	Z+20, r24	; 0x14
    106e:	15 8a       	std	Z+21, r1	; 0x15
    1070:	86 8b       	std	Z+22, r24	; 0x16
    1072:	47 8b       	std	Z+23, r20	; 0x17
    1074:	82 8d       	ldd	r24, Z+26	; 0x1a
    1076:	86 8f       	std	Z+30, r24	; 0x1e
    1078:	83 8d       	ldd	r24, Z+27	; 0x1b
    107a:	87 8f       	std	Z+31, r24	; 0x1f
    107c:	84 8d       	ldd	r24, Z+28	; 0x1c
    107e:	80 a3       	std	Z+32, r24	; 0x20
    1080:	85 8d       	ldd	r24, Z+29	; 0x1d
    1082:	81 a3       	std	Z+33, r24	; 0x21
    1084:	8c ea       	ldi	r24, 0xAC	; 172
    1086:	82 8f       	std	Z+26, r24	; 0x1a
    1088:	80 e1       	ldi	r24, 0x10	; 16
    108a:	83 8f       	std	Z+27, r24	; 0x1b
    108c:	8f e0       	ldi	r24, 0x0F	; 15
    108e:	84 8f       	std	Z+28, r24	; 0x1c
    1090:	81 e0       	ldi	r24, 0x01	; 1
    1092:	85 8f       	std	Z+29, r24	; 0x1d
    1094:	10 8e       	std	Z+24, r1	; 0x18
    1096:	11 8e       	std	Z+25, r1	; 0x19
    1098:	cb 01       	movw	r24, r22
    109a:	4b 83       	std	Y+3, r20	; 0x03
    109c:	69 83       	std	Y+1, r22	; 0x01
    109e:	7a 83       	std	Y+2, r23	; 0x02
    10a0:	0e 94 7e 07 	call	0xefc	; 0xefc <makeEthernetHeader>
    10a4:	4b 81       	ldd	r20, Y+3	; 0x03
    10a6:	69 81       	ldd	r22, Y+1	; 0x01
    10a8:	7a 81       	ldd	r23, Y+2	; 0x02
    10aa:	46 30       	cpi	r20, 0x06	; 6
    10ac:	21 f4       	brne	.+8      	; 0x10b6 <sendIpPacket+0x88>
    10ae:	c8 01       	movw	r24, r16
    10b0:	82 96       	adiw	r24, 0x22	; 34
    10b2:	43 e0       	ldi	r20, 0x03	; 3
    10b4:	05 c0       	rjmp	.+10     	; 0x10c0 <sendIpPacket+0x92>
    10b6:	41 31       	cpi	r20, 0x11	; 17
    10b8:	29 f4       	brne	.+10     	; 0x10c4 <sendIpPacket+0x96>
    10ba:	c8 01       	movw	r24, r16
    10bc:	82 96       	adiw	r24, 0x22	; 34
    10be:	47 e0       	ldi	r20, 0x07	; 7
    10c0:	0e 94 08 0e 	call	0x1c10	; 0x1c10 <enc28j60_sendPacket>
    10c4:	0f 90       	pop	r0
    10c6:	0f 90       	pop	r0
    10c8:	0f 90       	pop	r0
    10ca:	cf 91       	pop	r28
    10cc:	df 91       	pop	r29
    10ce:	1f 91       	pop	r17
    10d0:	0f 91       	pop	r16
    10d2:	08 95       	ret

000010d4 <isUdpPacket>:
    10d4:	cf 93       	push	r28
    10d6:	df 93       	push	r29
    10d8:	ec 01       	movw	r28, r24
    10da:	0e 94 e7 07 	call	0xfce	; 0xfce <isIpPacketAndTargetMyIp>
    10de:	88 23       	and	r24, r24
    10e0:	21 f0       	breq	.+8      	; 0x10ea <isUdpPacket+0x16>
    10e2:	81 e0       	ldi	r24, 0x01	; 1
    10e4:	9f 89       	ldd	r25, Y+23	; 0x17
    10e6:	91 31       	cpi	r25, 0x11	; 17
    10e8:	09 f0       	breq	.+2      	; 0x10ec <isUdpPacket+0x18>
    10ea:	80 e0       	ldi	r24, 0x00	; 0
    10ec:	df 91       	pop	r29
    10ee:	cf 91       	pop	r28
    10f0:	08 95       	ret

000010f2 <getUdpPort>:
    10f2:	cf 93       	push	r28
    10f4:	df 93       	push	r29
    10f6:	ec 01       	movw	r28, r24
    10f8:	0e 94 6a 08 	call	0x10d4	; 0x10d4 <isUdpPacket>
    10fc:	88 23       	and	r24, r24
    10fe:	39 f0       	breq	.+14     	; 0x110e <getUdpPort+0x1c>
    1100:	9c a1       	ldd	r25, Y+36	; 0x24
    1102:	80 e0       	ldi	r24, 0x00	; 0
    1104:	2d a1       	ldd	r18, Y+37	; 0x25
    1106:	30 e0       	ldi	r19, 0x00	; 0
    1108:	28 2b       	or	r18, r24
    110a:	39 2b       	or	r19, r25
    110c:	02 c0       	rjmp	.+4      	; 0x1112 <getUdpPort+0x20>
    110e:	20 e0       	ldi	r18, 0x00	; 0
    1110:	30 e0       	ldi	r19, 0x00	; 0
    1112:	c9 01       	movw	r24, r18
    1114:	df 91       	pop	r29
    1116:	cf 91       	pop	r28
    1118:	08 95       	ret

0000111a <getUdpDataPointer>:
    111a:	9c 01       	movw	r18, r24
    111c:	26 5d       	subi	r18, 0xD6	; 214
    111e:	3f 4f       	sbci	r19, 0xFF	; 255
    1120:	c9 01       	movw	r24, r18
    1122:	08 95       	ret

00001124 <makeUdpPacket>:
    1124:	cf 93       	push	r28
    1126:	df 93       	push	r29
    1128:	9c 01       	movw	r18, r24
    112a:	fb 01       	movw	r30, r22
    112c:	74 a1       	ldd	r23, Z+36	; 0x24
    112e:	60 e0       	ldi	r22, 0x00	; 0
    1130:	85 a1       	ldd	r24, Z+37	; 0x25
    1132:	90 e0       	ldi	r25, 0x00	; 0
    1134:	86 2b       	or	r24, r22
    1136:	97 2b       	or	r25, r23
    1138:	62 a1       	ldd	r22, Z+34	; 0x22
    113a:	64 a3       	std	Z+36, r22	; 0x24
    113c:	63 a1       	ldd	r22, Z+35	; 0x23
    113e:	65 a3       	std	Z+37, r22	; 0x25
    1140:	92 a3       	std	Z+34, r25	; 0x22
    1142:	83 a3       	std	Z+35, r24	; 0x23
    1144:	c9 01       	movw	r24, r18
    1146:	08 96       	adiw	r24, 0x08	; 8
    1148:	96 a3       	std	Z+38, r25	; 0x26
    114a:	62 2f       	mov	r22, r18
    114c:	68 5f       	subi	r22, 0xF8	; 248
    114e:	67 a3       	std	Z+39, r22	; 0x27
    1150:	10 a6       	std	Z+40, r1	; 0x28
    1152:	11 a6       	std	Z+41, r1	; 0x29
    1154:	ea 01       	movw	r28, r20
    1156:	df 01       	movw	r26, r30
    1158:	9a 96       	adiw	r26, 0x2a	; 42
    115a:	40 e0       	ldi	r20, 0x00	; 0
    115c:	50 e0       	ldi	r21, 0x00	; 0
    115e:	04 c0       	rjmp	.+8      	; 0x1168 <makeUdpPacket+0x44>
    1160:	69 91       	ld	r22, Y+
    1162:	6d 93       	st	X+, r22
    1164:	4f 5f       	subi	r20, 0xFF	; 255
    1166:	5f 4f       	sbci	r21, 0xFF	; 255
    1168:	42 17       	cp	r20, r18
    116a:	53 07       	cpc	r21, r19
    116c:	c8 f3       	brcs	.-14     	; 0x1160 <makeUdpPacket+0x3c>
    116e:	bf 01       	movw	r22, r30
    1170:	41 e1       	ldi	r20, 0x11	; 17
    1172:	0e 94 17 08 	call	0x102e	; 0x102e <sendIpPacket>
    1176:	df 91       	pop	r29
    1178:	cf 91       	pop	r28
    117a:	08 95       	ret

0000117c <isTcpPacket>:
    117c:	cf 93       	push	r28
    117e:	df 93       	push	r29
    1180:	ec 01       	movw	r28, r24
    1182:	0e 94 e7 07 	call	0xfce	; 0xfce <isIpPacketAndTargetMyIp>
    1186:	88 23       	and	r24, r24
    1188:	21 f0       	breq	.+8      	; 0x1192 <isTcpPacket+0x16>
    118a:	81 e0       	ldi	r24, 0x01	; 1
    118c:	9f 89       	ldd	r25, Y+23	; 0x17
    118e:	96 30       	cpi	r25, 0x06	; 6
    1190:	09 f0       	breq	.+2      	; 0x1194 <isTcpPacket+0x18>
    1192:	80 e0       	ldi	r24, 0x00	; 0
    1194:	df 91       	pop	r29
    1196:	cf 91       	pop	r28
    1198:	08 95       	ret

0000119a <isTcpAndSyn>:
    119a:	cf 93       	push	r28
    119c:	df 93       	push	r29
    119e:	ec 01       	movw	r28, r24
    11a0:	0e 94 be 08 	call	0x117c	; 0x117c <isTcpPacket>
    11a4:	88 23       	and	r24, r24
    11a6:	29 f0       	breq	.+10     	; 0x11b2 <isTcpAndSyn+0x18>
    11a8:	9f a5       	ldd	r25, Y+47	; 0x2f
    11aa:	91 ff       	sbrs	r25, 1
    11ac:	02 c0       	rjmp	.+4      	; 0x11b2 <isTcpAndSyn+0x18>
    11ae:	81 e0       	ldi	r24, 0x01	; 1
    11b0:	94 fd       	sbrc	r25, 4
    11b2:	80 e0       	ldi	r24, 0x00	; 0
    11b4:	df 91       	pop	r29
    11b6:	cf 91       	pop	r28
    11b8:	08 95       	ret

000011ba <isTcpAndFinAck>:
    11ba:	cf 93       	push	r28
    11bc:	df 93       	push	r29
    11be:	ec 01       	movw	r28, r24
    11c0:	0e 94 be 08 	call	0x117c	; 0x117c <isTcpPacket>
    11c4:	88 23       	and	r24, r24
    11c6:	29 f0       	breq	.+10     	; 0x11d2 <isTcpAndFinAck+0x18>
    11c8:	9f a5       	ldd	r25, Y+47	; 0x2f
    11ca:	91 71       	andi	r25, 0x11	; 17
    11cc:	81 e0       	ldi	r24, 0x01	; 1
    11ce:	91 31       	cpi	r25, 0x11	; 17
    11d0:	09 f0       	breq	.+2      	; 0x11d4 <isTcpAndFinAck+0x1a>
    11d2:	80 e0       	ldi	r24, 0x00	; 0
    11d4:	df 91       	pop	r29
    11d6:	cf 91       	pop	r28
    11d8:	08 95       	ret

000011da <isTcpAndRequireData>:
    11da:	cf 93       	push	r28
    11dc:	df 93       	push	r29
    11de:	ec 01       	movw	r28, r24
    11e0:	0e 94 be 08 	call	0x117c	; 0x117c <isTcpPacket>
    11e4:	88 23       	and	r24, r24
    11e6:	19 f0       	breq	.+6      	; 0x11ee <isTcpAndRequireData+0x14>
    11e8:	9f a5       	ldd	r25, Y+47	; 0x2f
    11ea:	81 e0       	ldi	r24, 0x01	; 1
    11ec:	93 ff       	sbrs	r25, 3
    11ee:	80 e0       	ldi	r24, 0x00	; 0
    11f0:	df 91       	pop	r29
    11f2:	cf 91       	pop	r28
    11f4:	08 95       	ret

000011f6 <getTcpPort>:
    11f6:	cf 93       	push	r28
    11f8:	df 93       	push	r29
    11fa:	ec 01       	movw	r28, r24
    11fc:	0e 94 be 08 	call	0x117c	; 0x117c <isTcpPacket>
    1200:	88 23       	and	r24, r24
    1202:	19 f0       	breq	.+6      	; 0x120a <getTcpPort+0x14>
    1204:	2d a1       	ldd	r18, Y+37	; 0x25
    1206:	30 e0       	ldi	r19, 0x00	; 0
    1208:	02 c0       	rjmp	.+4      	; 0x120e <getTcpPort+0x18>
    120a:	20 e0       	ldi	r18, 0x00	; 0
    120c:	30 e0       	ldi	r19, 0x00	; 0
    120e:	c9 01       	movw	r24, r18
    1210:	df 91       	pop	r29
    1212:	cf 91       	pop	r28
    1214:	08 95       	ret

00001216 <getTcpDataPointer>:
    1216:	fc 01       	movw	r30, r24
    1218:	26 a5       	ldd	r18, Z+46	; 0x2e
    121a:	26 95       	lsr	r18
    121c:	26 95       	lsr	r18
    121e:	24 51       	subi	r18, 0x14	; 20
    1220:	30 e0       	ldi	r19, 0x00	; 0
    1222:	2a 5c       	subi	r18, 0xCA	; 202
    1224:	3f 4f       	sbci	r19, 0xFF	; 255
    1226:	28 0f       	add	r18, r24
    1228:	39 1f       	adc	r19, r25
    122a:	c9 01       	movw	r24, r18
    122c:	08 95       	ret

0000122e <makeTcpPacket>:
    122e:	26 2f       	mov	r18, r22
    1230:	37 2f       	mov	r19, r23
    1232:	f9 01       	movw	r30, r18
    1234:	dc 01       	movw	r26, r24
    1236:	d6 96       	adiw	r26, 0x36	; 54
    1238:	80 e0       	ldi	r24, 0x00	; 0
    123a:	90 e0       	ldi	r25, 0x00	; 0
    123c:	03 c0       	rjmp	.+6      	; 0x1244 <makeTcpPacket+0x16>
    123e:	21 91       	ld	r18, Z+
    1240:	2d 93       	st	X+, r18
    1242:	01 96       	adiw	r24, 0x01	; 1
    1244:	84 17       	cp	r24, r20
    1246:	95 07       	cpc	r25, r21
    1248:	d0 f3       	brcs	.-12     	; 0x123e <makeTcpPacket+0x10>
    124a:	08 95       	ret

0000124c <makeTcpHeader>:
    124c:	cf 92       	push	r12
    124e:	df 92       	push	r13
    1250:	ef 92       	push	r14
    1252:	ff 92       	push	r15
    1254:	0f 93       	push	r16
    1256:	1f 93       	push	r17
    1258:	cf 93       	push	r28
    125a:	df 93       	push	r29
    125c:	fc 01       	movw	r30, r24
    125e:	36 2f       	mov	r19, r22
    1260:	6a 01       	movw	r12, r20
    1262:	e2 a0       	ldd	r14, Z+34	; 0x22
    1264:	f3 a0       	ldd	r15, Z+35	; 0x23
    1266:	84 a1       	ldd	r24, Z+36	; 0x24
    1268:	82 a3       	std	Z+34, r24	; 0x22
    126a:	85 a1       	ldd	r24, Z+37	; 0x25
    126c:	83 a3       	std	Z+35, r24	; 0x23
    126e:	e4 a2       	std	Z+36, r14	; 0x24
    1270:	f5 a2       	std	Z+37, r15	; 0x25
    1272:	c0 91 8e 02 	lds	r28, 0x028E
    1276:	d0 91 8f 02 	lds	r29, 0x028F
    127a:	56 a1       	ldd	r21, Z+38	; 0x26
    127c:	40 e0       	ldi	r20, 0x00	; 0
    127e:	87 a1       	ldd	r24, Z+39	; 0x27
    1280:	90 e0       	ldi	r25, 0x00	; 0
    1282:	84 2b       	or	r24, r20
    1284:	95 2b       	or	r25, r21
    1286:	aa 27       	eor	r26, r26
    1288:	97 fd       	sbrc	r25, 7
    128a:	a0 95       	com	r26
    128c:	ba 2f       	mov	r27, r26
    128e:	dc 01       	movw	r26, r24
    1290:	99 27       	eor	r25, r25
    1292:	88 27       	eor	r24, r24
    1294:	70 a5       	ldd	r23, Z+40	; 0x28
    1296:	60 e0       	ldi	r22, 0x00	; 0
    1298:	41 a5       	ldd	r20, Z+41	; 0x29
    129a:	50 e0       	ldi	r21, 0x00	; 0
    129c:	46 2b       	or	r20, r22
    129e:	57 2b       	or	r21, r23
    12a0:	66 27       	eor	r22, r22
    12a2:	57 fd       	sbrc	r21, 7
    12a4:	60 95       	com	r22
    12a6:	76 2f       	mov	r23, r22
    12a8:	84 2b       	or	r24, r20
    12aa:	95 2b       	or	r25, r21
    12ac:	a6 2b       	or	r26, r22
    12ae:	b7 2b       	or	r27, r23
    12b0:	01 96       	adiw	r24, 0x01	; 1
    12b2:	a1 1d       	adc	r26, r1
    12b4:	b1 1d       	adc	r27, r1
    12b6:	be 01       	movw	r22, r28
    12b8:	6f 5f       	subi	r22, 0xFF	; 255
    12ba:	7f 4f       	sbci	r23, 0xFF	; 255
    12bc:	70 93 8f 02 	sts	0x028F, r23
    12c0:	60 93 8e 02 	sts	0x028E, r22
    12c4:	47 a5       	ldd	r20, Z+47	; 0x2f
    12c6:	44 ff       	sbrs	r20, 4
    12c8:	09 c0       	rjmp	.+18     	; 0x12dc <makeTcpHeader+0x90>
    12ca:	42 a5       	ldd	r20, Z+42	; 0x2a
    12cc:	46 a3       	std	Z+38, r20	; 0x26
    12ce:	43 a5       	ldd	r20, Z+43	; 0x2b
    12d0:	47 a3       	std	Z+39, r20	; 0x27
    12d2:	44 a5       	ldd	r20, Z+44	; 0x2c
    12d4:	40 a7       	std	Z+40, r20	; 0x28
    12d6:	45 a5       	ldd	r20, Z+45	; 0x2d
    12d8:	41 a7       	std	Z+41, r20	; 0x29
    12da:	0b c0       	rjmp	.+22     	; 0x12f2 <makeTcpHeader+0xa6>
    12dc:	1e 2d       	mov	r17, r14
    12de:	00 e0       	ldi	r16, 0x00	; 0
    12e0:	4f 2d       	mov	r20, r15
    12e2:	50 e0       	ldi	r21, 0x00	; 0
    12e4:	40 2b       	or	r20, r16
    12e6:	51 2b       	or	r21, r17
    12e8:	56 a3       	std	Z+38, r21	; 0x26
    12ea:	47 a3       	std	Z+39, r20	; 0x27
    12ec:	7e 01       	movw	r14, r28
    12ee:	f0 a6       	std	Z+40, r15	; 0x28
    12f0:	c1 a7       	std	Z+41, r28	; 0x29
    12f2:	85 a7       	std	Z+45, r24	; 0x2d
    12f4:	94 a7       	std	Z+44, r25	; 0x2c
    12f6:	a3 a7       	std	Z+43, r26	; 0x2b
    12f8:	b2 a7       	std	Z+42, r27	; 0x2a
    12fa:	22 23       	and	r18, r18
    12fc:	59 f0       	breq	.+22     	; 0x1314 <makeTcpHeader+0xc8>
    12fe:	80 e6       	ldi	r24, 0x60	; 96
    1300:	86 a7       	std	Z+46, r24	; 0x2e
    1302:	82 e0       	ldi	r24, 0x02	; 2
    1304:	86 ab       	std	Z+54, r24	; 0x36
    1306:	84 e0       	ldi	r24, 0x04	; 4
    1308:	87 ab       	std	Z+55, r24	; 0x37
    130a:	85 e0       	ldi	r24, 0x05	; 5
    130c:	80 af       	std	Z+56, r24	; 0x38
    130e:	84 eb       	ldi	r24, 0xB4	; 180
    1310:	81 af       	std	Z+57, r24	; 0x39
    1312:	02 c0       	rjmp	.+4      	; 0x1318 <makeTcpHeader+0xcc>
    1314:	80 e5       	ldi	r24, 0x50	; 80
    1316:	86 a7       	std	Z+46, r24	; 0x2e
    1318:	37 a7       	std	Z+47, r19	; 0x2f
    131a:	14 aa       	std	Z+52, r1	; 0x34
    131c:	12 aa       	std	Z+50, r1	; 0x32
    131e:	13 aa       	std	Z+51, r1	; 0x33
    1320:	c6 01       	movw	r24, r12
    1322:	bf 01       	movw	r22, r30
    1324:	46 e0       	ldi	r20, 0x06	; 6
    1326:	0e 94 17 08 	call	0x102e	; 0x102e <sendIpPacket>
    132a:	df 91       	pop	r29
    132c:	cf 91       	pop	r28
    132e:	1f 91       	pop	r17
    1330:	0f 91       	pop	r16
    1332:	ff 90       	pop	r15
    1334:	ef 90       	pop	r14
    1336:	df 90       	pop	r13
    1338:	cf 90       	pop	r12
    133a:	08 95       	ret

0000133c <SAA_W>:
    133c:	df 93       	push	r29
    133e:	cf 93       	push	r28
    1340:	00 d0       	rcall	.+0      	; 0x1342 <SAA_W+0x6>
    1342:	0f 92       	push	r0
    1344:	cd b7       	in	r28, 0x3d	; 61
    1346:	de b7       	in	r29, 0x3e	; 62
    1348:	4b 83       	std	Y+3, r20	; 0x03
    134a:	6a 83       	std	Y+2, r22	; 0x02
    134c:	89 83       	std	Y+1, r24	; 0x01
    134e:	0e 94 26 07 	call	0xe4c	; 0xe4c <I2C_Send_M_Start>
    1352:	89 81       	ldd	r24, Y+1	; 0x01
    1354:	0e 94 47 07 	call	0xe8e	; 0xe8e <I2C_Send_M_Addr>
    1358:	6a 81       	ldd	r22, Y+2	; 0x02
    135a:	86 2f       	mov	r24, r22
    135c:	0e 94 5f 07 	call	0xebe	; 0xebe <I2C_Send_M_Data>
    1360:	4b 81       	ldd	r20, Y+3	; 0x03
    1362:	84 2f       	mov	r24, r20
    1364:	0e 94 5f 07 	call	0xebe	; 0xebe <I2C_Send_M_Data>
    1368:	0e 94 6d 07 	call	0xeda	; 0xeda <I2C_Send_M_Stop>
    136c:	0f 90       	pop	r0
    136e:	0f 90       	pop	r0
    1370:	0f 90       	pop	r0
    1372:	cf 91       	pop	r28
    1374:	df 91       	pop	r29
    1376:	08 95       	ret

00001378 <SAA_R>:
    1378:	1f 93       	push	r17
    137a:	df 93       	push	r29
    137c:	cf 93       	push	r28
    137e:	0f 92       	push	r0
    1380:	cd b7       	in	r28, 0x3d	; 61
    1382:	de b7       	in	r29, 0x3e	; 62
    1384:	18 2f       	mov	r17, r24
    1386:	69 83       	std	Y+1, r22	; 0x01
    1388:	0e 94 26 07 	call	0xe4c	; 0xe4c <I2C_Send_M_Start>
    138c:	81 2f       	mov	r24, r17
    138e:	8e 7f       	andi	r24, 0xFE	; 254
    1390:	0e 94 47 07 	call	0xe8e	; 0xe8e <I2C_Send_M_Addr>
    1394:	69 81       	ldd	r22, Y+1	; 0x01
    1396:	86 2f       	mov	r24, r22
    1398:	0e 94 5f 07 	call	0xebe	; 0xebe <I2C_Send_M_Data>
    139c:	0e 94 3a 07 	call	0xe74	; 0xe74 <I2C_Send_M_ReStart>
    13a0:	81 2f       	mov	r24, r17
    13a2:	0e 94 47 07 	call	0xe8e	; 0xe8e <I2C_Send_M_Addr>
    13a6:	0e 94 70 07 	call	0xee0	; 0xee0 <I2C_Send_M_Read>
    13aa:	89 83       	std	Y+1, r24	; 0x01
    13ac:	0e 94 6d 07 	call	0xeda	; 0xeda <I2C_Send_M_Stop>
    13b0:	89 81       	ldd	r24, Y+1	; 0x01
    13b2:	0f 90       	pop	r0
    13b4:	cf 91       	pop	r28
    13b6:	df 91       	pop	r29
    13b8:	1f 91       	pop	r17
    13ba:	08 95       	ret

000013bc <SAA7113_init>:
    13bc:	cf 93       	push	r28
    13be:	df 93       	push	r29
    13c0:	8a e4       	ldi	r24, 0x4A	; 74
    13c2:	61 e0       	ldi	r22, 0x01	; 1
    13c4:	48 e0       	ldi	r20, 0x08	; 8
    13c6:	0e 94 9e 09 	call	0x133c	; 0x133c <SAA_W>
    13ca:	8a e4       	ldi	r24, 0x4A	; 74
    13cc:	62 e0       	ldi	r22, 0x02	; 2
    13ce:	41 ec       	ldi	r20, 0xC1	; 193
    13d0:	0e 94 9e 09 	call	0x133c	; 0x133c <SAA_W>
    13d4:	8a e4       	ldi	r24, 0x4A	; 74
    13d6:	63 e0       	ldi	r22, 0x03	; 3
    13d8:	43 e2       	ldi	r20, 0x23	; 35
    13da:	0e 94 9e 09 	call	0x133c	; 0x133c <SAA_W>
    13de:	8a e4       	ldi	r24, 0x4A	; 74
    13e0:	64 e0       	ldi	r22, 0x04	; 4
    13e2:	40 e0       	ldi	r20, 0x00	; 0
    13e4:	0e 94 9e 09 	call	0x133c	; 0x133c <SAA_W>
    13e8:	8a e4       	ldi	r24, 0x4A	; 74
    13ea:	65 e0       	ldi	r22, 0x05	; 5
    13ec:	40 e0       	ldi	r20, 0x00	; 0
    13ee:	0e 94 9e 09 	call	0x133c	; 0x133c <SAA_W>
    13f2:	8a e4       	ldi	r24, 0x4A	; 74
    13f4:	66 e0       	ldi	r22, 0x06	; 6
    13f6:	4b ee       	ldi	r20, 0xEB	; 235
    13f8:	0e 94 9e 09 	call	0x133c	; 0x133c <SAA_W>
    13fc:	8a e4       	ldi	r24, 0x4A	; 74
    13fe:	67 e0       	ldi	r22, 0x07	; 7
    1400:	40 ee       	ldi	r20, 0xE0	; 224
    1402:	0e 94 9e 09 	call	0x133c	; 0x133c <SAA_W>
    1406:	8a e4       	ldi	r24, 0x4A	; 74
    1408:	68 e0       	ldi	r22, 0x08	; 8
    140a:	48 e8       	ldi	r20, 0x88	; 136
    140c:	0e 94 9e 09 	call	0x133c	; 0x133c <SAA_W>
    1410:	8a e4       	ldi	r24, 0x4A	; 74
    1412:	69 e0       	ldi	r22, 0x09	; 9
    1414:	41 e0       	ldi	r20, 0x01	; 1
    1416:	0e 94 9e 09 	call	0x133c	; 0x133c <SAA_W>
    141a:	8a e4       	ldi	r24, 0x4A	; 74
    141c:	6a e0       	ldi	r22, 0x0A	; 10
    141e:	40 e8       	ldi	r20, 0x80	; 128
    1420:	0e 94 9e 09 	call	0x133c	; 0x133c <SAA_W>
    1424:	8a e4       	ldi	r24, 0x4A	; 74
    1426:	6b e0       	ldi	r22, 0x0B	; 11
    1428:	47 e4       	ldi	r20, 0x47	; 71
    142a:	0e 94 9e 09 	call	0x133c	; 0x133c <SAA_W>
    142e:	8a e4       	ldi	r24, 0x4A	; 74
    1430:	6c e0       	ldi	r22, 0x0C	; 12
    1432:	40 e4       	ldi	r20, 0x40	; 64
    1434:	0e 94 9e 09 	call	0x133c	; 0x133c <SAA_W>
    1438:	8a e4       	ldi	r24, 0x4A	; 74
    143a:	6d e0       	ldi	r22, 0x0D	; 13
    143c:	40 e0       	ldi	r20, 0x00	; 0
    143e:	0e 94 9e 09 	call	0x133c	; 0x133c <SAA_W>
    1442:	8a e4       	ldi	r24, 0x4A	; 74
    1444:	6e e0       	ldi	r22, 0x0E	; 14
    1446:	41 e0       	ldi	r20, 0x01	; 1
    1448:	0e 94 9e 09 	call	0x133c	; 0x133c <SAA_W>
    144c:	8a e4       	ldi	r24, 0x4A	; 74
    144e:	6f e0       	ldi	r22, 0x0F	; 15
    1450:	4a e2       	ldi	r20, 0x2A	; 42
    1452:	0e 94 9e 09 	call	0x133c	; 0x133c <SAA_W>
    1456:	8a e4       	ldi	r24, 0x4A	; 74
    1458:	60 e1       	ldi	r22, 0x10	; 16
    145a:	40 e0       	ldi	r20, 0x00	; 0
    145c:	0e 94 9e 09 	call	0x133c	; 0x133c <SAA_W>
    1460:	8a e4       	ldi	r24, 0x4A	; 74
    1462:	61 e1       	ldi	r22, 0x11	; 17
    1464:	4c e0       	ldi	r20, 0x0C	; 12
    1466:	0e 94 9e 09 	call	0x133c	; 0x133c <SAA_W>
    146a:	8a e4       	ldi	r24, 0x4A	; 74
    146c:	62 e1       	ldi	r22, 0x12	; 18
    146e:	4e e7       	ldi	r20, 0x7E	; 126
    1470:	0e 94 9e 09 	call	0x133c	; 0x133c <SAA_W>
    1474:	8a e4       	ldi	r24, 0x4A	; 74
    1476:	63 e1       	ldi	r22, 0x13	; 19
    1478:	41 e0       	ldi	r20, 0x01	; 1
    147a:	0e 94 9e 09 	call	0x133c	; 0x133c <SAA_W>
    147e:	8a e4       	ldi	r24, 0x4A	; 74
    1480:	65 e1       	ldi	r22, 0x15	; 21
    1482:	40 e0       	ldi	r20, 0x00	; 0
    1484:	0e 94 9e 09 	call	0x133c	; 0x133c <SAA_W>
    1488:	8a e4       	ldi	r24, 0x4A	; 74
    148a:	66 e1       	ldi	r22, 0x16	; 22
    148c:	40 e0       	ldi	r20, 0x00	; 0
    148e:	0e 94 9e 09 	call	0x133c	; 0x133c <SAA_W>
    1492:	8a e4       	ldi	r24, 0x4A	; 74
    1494:	67 e1       	ldi	r22, 0x17	; 23
    1496:	40 e0       	ldi	r20, 0x00	; 0
    1498:	0e 94 9e 09 	call	0x133c	; 0x133c <SAA_W>
    149c:	8a e4       	ldi	r24, 0x4A	; 74
    149e:	60 e4       	ldi	r22, 0x40	; 64
    14a0:	42 e0       	ldi	r20, 0x02	; 2
    14a2:	0e 94 9e 09 	call	0x133c	; 0x133c <SAA_W>
    14a6:	c1 e4       	ldi	r28, 0x41	; 65
    14a8:	d0 e0       	ldi	r29, 0x00	; 0
    14aa:	8a e4       	ldi	r24, 0x4A	; 74
    14ac:	6c 2f       	mov	r22, r28
    14ae:	4f ef       	ldi	r20, 0xFF	; 255
    14b0:	0e 94 9e 09 	call	0x133c	; 0x133c <SAA_W>
    14b4:	21 96       	adiw	r28, 0x01	; 1
    14b6:	c8 35       	cpi	r28, 0x58	; 88
    14b8:	d1 05       	cpc	r29, r1
    14ba:	b9 f7       	brne	.-18     	; 0x14aa <SAA7113_init+0xee>
    14bc:	8a e4       	ldi	r24, 0x4A	; 74
    14be:	68 e5       	ldi	r22, 0x58	; 88
    14c0:	40 e0       	ldi	r20, 0x00	; 0
    14c2:	0e 94 9e 09 	call	0x133c	; 0x133c <SAA_W>
    14c6:	8a e4       	ldi	r24, 0x4A	; 74
    14c8:	69 e5       	ldi	r22, 0x59	; 89
    14ca:	44 e5       	ldi	r20, 0x54	; 84
    14cc:	0e 94 9e 09 	call	0x133c	; 0x133c <SAA_W>
    14d0:	8a e4       	ldi	r24, 0x4A	; 74
    14d2:	6a e5       	ldi	r22, 0x5A	; 90
    14d4:	47 e0       	ldi	r20, 0x07	; 7
    14d6:	0e 94 9e 09 	call	0x133c	; 0x133c <SAA_W>
    14da:	8a e4       	ldi	r24, 0x4A	; 74
    14dc:	6b e5       	ldi	r22, 0x5B	; 91
    14de:	43 e8       	ldi	r20, 0x83	; 131
    14e0:	0e 94 9e 09 	call	0x133c	; 0x133c <SAA_W>
    14e4:	8a e4       	ldi	r24, 0x4A	; 74
    14e6:	6e e5       	ldi	r22, 0x5E	; 94
    14e8:	40 e0       	ldi	r20, 0x00	; 0
    14ea:	0e 94 9e 09 	call	0x133c	; 0x133c <SAA_W>
    14ee:	df 91       	pop	r29
    14f0:	cf 91       	pop	r28
    14f2:	08 95       	ret

000014f4 <SAA7121_init>:
    14f4:	0f 93       	push	r16
    14f6:	1f 93       	push	r17
    14f8:	df 93       	push	r29
    14fa:	cf 93       	push	r28
    14fc:	00 d0       	rcall	.+0      	; 0x14fe <SAA7121_init+0xa>
    14fe:	0f 92       	push	r0
    1500:	cd b7       	in	r28, 0x3d	; 61
    1502:	de b7       	in	r29, 0x3e	; 62
    1504:	88 e8       	ldi	r24, 0x88	; 136
    1506:	66 e2       	ldi	r22, 0x26	; 38
    1508:	40 e0       	ldi	r20, 0x00	; 0
    150a:	0e 94 9e 09 	call	0x133c	; 0x133c <SAA_W>
    150e:	89 e8       	ldi	r24, 0x89	; 137
    1510:	66 e2       	ldi	r22, 0x26	; 38
    1512:	0e 94 bc 09 	call	0x1378	; 0x1378 <SAA_R>
    1516:	98 2f       	mov	r25, r24
    1518:	92 95       	swap	r25
    151a:	9f 70       	andi	r25, 0x0F	; 15
    151c:	90 5d       	subi	r25, 0xD0	; 208
    151e:	99 83       	std	Y+1, r25	; 0x01
    1520:	8f 70       	andi	r24, 0x0F	; 15
    1522:	80 5d       	subi	r24, 0xD0	; 208
    1524:	8a 83       	std	Y+2, r24	; 0x02
    1526:	1b 82       	std	Y+3, r1	; 0x03
    1528:	8e 01       	movw	r16, r28
    152a:	0f 5f       	subi	r16, 0xFF	; 255
    152c:	1f 4f       	sbci	r17, 0xFF	; 255
    152e:	c8 01       	movw	r24, r16
    1530:	0e 94 0b 16 	call	0x2c16	; 0x2c16 <USART_StringPut>
    1534:	88 e8       	ldi	r24, 0x88	; 136
    1536:	67 e2       	ldi	r22, 0x27	; 39
    1538:	40 e0       	ldi	r20, 0x00	; 0
    153a:	0e 94 9e 09 	call	0x133c	; 0x133c <SAA_W>
    153e:	88 e8       	ldi	r24, 0x88	; 136
    1540:	68 e2       	ldi	r22, 0x28	; 40
    1542:	41 ea       	ldi	r20, 0xA1	; 161
    1544:	0e 94 9e 09 	call	0x133c	; 0x133c <SAA_W>
    1548:	88 e8       	ldi	r24, 0x88	; 136
    154a:	69 e2       	ldi	r22, 0x29	; 41
    154c:	4d e1       	ldi	r20, 0x1D	; 29
    154e:	0e 94 9e 09 	call	0x133c	; 0x133c <SAA_W>
    1552:	88 e8       	ldi	r24, 0x88	; 136
    1554:	6a e2       	ldi	r22, 0x2A	; 42
    1556:	40 e8       	ldi	r20, 0x80	; 128
    1558:	0e 94 9e 09 	call	0x133c	; 0x133c <SAA_W>
    155c:	88 e8       	ldi	r24, 0x88	; 136
    155e:	6b e2       	ldi	r22, 0x2B	; 43
    1560:	40 e8       	ldi	r20, 0x80	; 128
    1562:	0e 94 9e 09 	call	0x133c	; 0x133c <SAA_W>
    1566:	88 e8       	ldi	r24, 0x88	; 136
    1568:	6c e2       	ldi	r22, 0x2C	; 44
    156a:	40 e8       	ldi	r20, 0x80	; 128
    156c:	0e 94 9e 09 	call	0x133c	; 0x133c <SAA_W>
    1570:	88 e8       	ldi	r24, 0x88	; 136
    1572:	6d e2       	ldi	r22, 0x2D	; 45
    1574:	40 e8       	ldi	r20, 0x80	; 128
    1576:	0e 94 9e 09 	call	0x133c	; 0x133c <SAA_W>
    157a:	88 e8       	ldi	r24, 0x88	; 136
    157c:	6e e2       	ldi	r22, 0x2E	; 46
    157e:	40 e0       	ldi	r20, 0x00	; 0
    1580:	0e 94 9e 09 	call	0x133c	; 0x133c <SAA_W>
    1584:	88 e8       	ldi	r24, 0x88	; 136
    1586:	6a e3       	ldi	r22, 0x3A	; 58
    1588:	43 e1       	ldi	r20, 0x13	; 19
    158a:	0e 94 9e 09 	call	0x133c	; 0x133c <SAA_W>
    158e:	89 e8       	ldi	r24, 0x89	; 137
    1590:	6a e3       	ldi	r22, 0x3A	; 58
    1592:	0e 94 bc 09 	call	0x1378	; 0x1378 <SAA_R>
    1596:	98 2f       	mov	r25, r24
    1598:	92 95       	swap	r25
    159a:	9f 70       	andi	r25, 0x0F	; 15
    159c:	90 5d       	subi	r25, 0xD0	; 208
    159e:	99 83       	std	Y+1, r25	; 0x01
    15a0:	8f 70       	andi	r24, 0x0F	; 15
    15a2:	80 5d       	subi	r24, 0xD0	; 208
    15a4:	8a 83       	std	Y+2, r24	; 0x02
    15a6:	1b 82       	std	Y+3, r1	; 0x03
    15a8:	c8 01       	movw	r24, r16
    15aa:	0e 94 0b 16 	call	0x2c16	; 0x2c16 <USART_StringPut>
    15ae:	88 e8       	ldi	r24, 0x88	; 136
    15b0:	6a e5       	ldi	r22, 0x5A	; 90
    15b2:	40 e0       	ldi	r20, 0x00	; 0
    15b4:	0e 94 9e 09 	call	0x133c	; 0x133c <SAA_W>
    15b8:	88 e8       	ldi	r24, 0x88	; 136
    15ba:	6b e5       	ldi	r22, 0x5B	; 91
    15bc:	4d e7       	ldi	r20, 0x7D	; 125
    15be:	0e 94 9e 09 	call	0x133c	; 0x133c <SAA_W>
    15c2:	88 e8       	ldi	r24, 0x88	; 136
    15c4:	6c e5       	ldi	r22, 0x5C	; 92
    15c6:	4f ea       	ldi	r20, 0xAF	; 175
    15c8:	0e 94 9e 09 	call	0x133c	; 0x133c <SAA_W>
    15cc:	88 e8       	ldi	r24, 0x88	; 136
    15ce:	6d e5       	ldi	r22, 0x5D	; 93
    15d0:	4a e6       	ldi	r20, 0x6A	; 106
    15d2:	0e 94 9e 09 	call	0x133c	; 0x133c <SAA_W>
    15d6:	88 e8       	ldi	r24, 0x88	; 136
    15d8:	6e e5       	ldi	r22, 0x5E	; 94
    15da:	45 e7       	ldi	r20, 0x75	; 117
    15dc:	0e 94 9e 09 	call	0x133c	; 0x133c <SAA_W>
    15e0:	88 e8       	ldi	r24, 0x88	; 136
    15e2:	6f e5       	ldi	r22, 0x5F	; 95
    15e4:	45 e3       	ldi	r20, 0x35	; 53
    15e6:	0e 94 9e 09 	call	0x133c	; 0x133c <SAA_W>
    15ea:	88 e8       	ldi	r24, 0x88	; 136
    15ec:	61 e6       	ldi	r22, 0x61	; 97
    15ee:	46 e2       	ldi	r20, 0x26	; 38
    15f0:	0e 94 9e 09 	call	0x133c	; 0x133c <SAA_W>
    15f4:	88 e8       	ldi	r24, 0x88	; 136
    15f6:	62 e6       	ldi	r22, 0x62	; 98
    15f8:	4f ea       	ldi	r20, 0xAF	; 175
    15fa:	0e 94 9e 09 	call	0x133c	; 0x133c <SAA_W>
    15fe:	88 e8       	ldi	r24, 0x88	; 136
    1600:	63 e6       	ldi	r22, 0x63	; 99
    1602:	4b ec       	ldi	r20, 0xCB	; 203
    1604:	0e 94 9e 09 	call	0x133c	; 0x133c <SAA_W>
    1608:	88 e8       	ldi	r24, 0x88	; 136
    160a:	64 e6       	ldi	r22, 0x64	; 100
    160c:	4a e8       	ldi	r20, 0x8A	; 138
    160e:	0e 94 9e 09 	call	0x133c	; 0x133c <SAA_W>
    1612:	88 e8       	ldi	r24, 0x88	; 136
    1614:	65 e6       	ldi	r22, 0x65	; 101
    1616:	49 e0       	ldi	r20, 0x09	; 9
    1618:	0e 94 9e 09 	call	0x133c	; 0x133c <SAA_W>
    161c:	88 e8       	ldi	r24, 0x88	; 136
    161e:	66 e6       	ldi	r22, 0x66	; 102
    1620:	4a e2       	ldi	r20, 0x2A	; 42
    1622:	0e 94 9e 09 	call	0x133c	; 0x133c <SAA_W>
    1626:	88 e8       	ldi	r24, 0x88	; 136
    1628:	67 e6       	ldi	r22, 0x67	; 103
    162a:	40 e8       	ldi	r20, 0x80	; 128
    162c:	0e 94 9e 09 	call	0x133c	; 0x133c <SAA_W>
    1630:	88 e8       	ldi	r24, 0x88	; 136
    1632:	68 e6       	ldi	r22, 0x68	; 104
    1634:	40 e8       	ldi	r20, 0x80	; 128
    1636:	0e 94 9e 09 	call	0x133c	; 0x133c <SAA_W>
    163a:	88 e8       	ldi	r24, 0x88	; 136
    163c:	69 e6       	ldi	r22, 0x69	; 105
    163e:	40 e8       	ldi	r20, 0x80	; 128
    1640:	0e 94 9e 09 	call	0x133c	; 0x133c <SAA_W>
    1644:	88 e8       	ldi	r24, 0x88	; 136
    1646:	6a e6       	ldi	r22, 0x6A	; 106
    1648:	40 e8       	ldi	r20, 0x80	; 128
    164a:	0e 94 9e 09 	call	0x133c	; 0x133c <SAA_W>
    164e:	88 e8       	ldi	r24, 0x88	; 136
    1650:	6b e6       	ldi	r22, 0x6B	; 107
    1652:	40 e2       	ldi	r20, 0x20	; 32
    1654:	0e 94 9e 09 	call	0x133c	; 0x133c <SAA_W>
    1658:	88 e8       	ldi	r24, 0x88	; 136
    165a:	6c e6       	ldi	r22, 0x6C	; 108
    165c:	45 e0       	ldi	r20, 0x05	; 5
    165e:	0e 94 9e 09 	call	0x133c	; 0x133c <SAA_W>
    1662:	88 e8       	ldi	r24, 0x88	; 136
    1664:	6d e6       	ldi	r22, 0x6D	; 109
    1666:	40 e2       	ldi	r20, 0x20	; 32
    1668:	0e 94 9e 09 	call	0x133c	; 0x133c <SAA_W>
    166c:	88 e8       	ldi	r24, 0x88	; 136
    166e:	6e e6       	ldi	r22, 0x6E	; 110
    1670:	40 e2       	ldi	r20, 0x20	; 32
    1672:	0e 94 9e 09 	call	0x133c	; 0x133c <SAA_W>
    1676:	88 e8       	ldi	r24, 0x88	; 136
    1678:	6f e6       	ldi	r22, 0x6F	; 111
    167a:	44 e1       	ldi	r20, 0x14	; 20
    167c:	0e 94 9e 09 	call	0x133c	; 0x133c <SAA_W>
    1680:	88 e8       	ldi	r24, 0x88	; 136
    1682:	60 e7       	ldi	r22, 0x70	; 112
    1684:	40 e8       	ldi	r20, 0x80	; 128
    1686:	0e 94 9e 09 	call	0x133c	; 0x133c <SAA_W>
    168a:	88 e8       	ldi	r24, 0x88	; 136
    168c:	61 e7       	ldi	r22, 0x71	; 113
    168e:	48 ee       	ldi	r20, 0xE8	; 232
    1690:	0e 94 9e 09 	call	0x133c	; 0x133c <SAA_W>
    1694:	88 e8       	ldi	r24, 0x88	; 136
    1696:	62 e7       	ldi	r22, 0x72	; 114
    1698:	40 e1       	ldi	r20, 0x10	; 16
    169a:	0e 94 9e 09 	call	0x133c	; 0x133c <SAA_W>
    169e:	88 e8       	ldi	r24, 0x88	; 136
    16a0:	63 e7       	ldi	r22, 0x73	; 115
    16a2:	42 e4       	ldi	r20, 0x42	; 66
    16a4:	0e 94 9e 09 	call	0x133c	; 0x133c <SAA_W>
    16a8:	88 e8       	ldi	r24, 0x88	; 136
    16aa:	64 e7       	ldi	r22, 0x74	; 116
    16ac:	43 e0       	ldi	r20, 0x03	; 3
    16ae:	0e 94 9e 09 	call	0x133c	; 0x133c <SAA_W>
    16b2:	88 e8       	ldi	r24, 0x88	; 136
    16b4:	65 e7       	ldi	r22, 0x75	; 117
    16b6:	43 e0       	ldi	r20, 0x03	; 3
    16b8:	0e 94 9e 09 	call	0x133c	; 0x133c <SAA_W>
    16bc:	88 e8       	ldi	r24, 0x88	; 136
    16be:	66 e7       	ldi	r22, 0x76	; 118
    16c0:	45 e0       	ldi	r20, 0x05	; 5
    16c2:	0e 94 9e 09 	call	0x133c	; 0x133c <SAA_W>
    16c6:	88 e8       	ldi	r24, 0x88	; 136
    16c8:	67 e7       	ldi	r22, 0x77	; 119
    16ca:	46 e1       	ldi	r20, 0x16	; 22
    16cc:	0e 94 9e 09 	call	0x133c	; 0x133c <SAA_W>
    16d0:	88 e8       	ldi	r24, 0x88	; 136
    16d2:	68 e7       	ldi	r22, 0x78	; 120
    16d4:	44 e0       	ldi	r20, 0x04	; 4
    16d6:	0e 94 9e 09 	call	0x133c	; 0x133c <SAA_W>
    16da:	88 e8       	ldi	r24, 0x88	; 136
    16dc:	69 e7       	ldi	r22, 0x79	; 121
    16de:	46 e1       	ldi	r20, 0x16	; 22
    16e0:	0e 94 9e 09 	call	0x133c	; 0x133c <SAA_W>
    16e4:	88 e8       	ldi	r24, 0x88	; 136
    16e6:	6a e7       	ldi	r22, 0x7A	; 122
    16e8:	48 e1       	ldi	r20, 0x18	; 24
    16ea:	0e 94 9e 09 	call	0x133c	; 0x133c <SAA_W>
    16ee:	88 e8       	ldi	r24, 0x88	; 136
    16f0:	6b e7       	ldi	r22, 0x7B	; 123
    16f2:	48 e3       	ldi	r20, 0x38	; 56
    16f4:	0e 94 9e 09 	call	0x133c	; 0x133c <SAA_W>
    16f8:	88 e8       	ldi	r24, 0x88	; 136
    16fa:	6c e7       	ldi	r22, 0x7C	; 124
    16fc:	40 e4       	ldi	r20, 0x40	; 64
    16fe:	0e 94 9e 09 	call	0x133c	; 0x133c <SAA_W>
    1702:	88 e8       	ldi	r24, 0x88	; 136
    1704:	6e e7       	ldi	r22, 0x7E	; 126
    1706:	40 e0       	ldi	r20, 0x00	; 0
    1708:	0e 94 9e 09 	call	0x133c	; 0x133c <SAA_W>
    170c:	88 e8       	ldi	r24, 0x88	; 136
    170e:	6f e7       	ldi	r22, 0x7F	; 127
    1710:	40 e0       	ldi	r20, 0x00	; 0
    1712:	0e 94 9e 09 	call	0x133c	; 0x133c <SAA_W>
    1716:	0f 90       	pop	r0
    1718:	0f 90       	pop	r0
    171a:	0f 90       	pop	r0
    171c:	cf 91       	pop	r28
    171e:	df 91       	pop	r29
    1720:	1f 91       	pop	r17
    1722:	0f 91       	pop	r16
    1724:	08 95       	ret

00001726 <SPI_MasterInit>:
    1726:	81 e5       	ldi	r24, 0x51	; 81
    1728:	8d b9       	out	0x0d, r24	; 13
    172a:	87 b3       	in	r24, 0x17	; 23
    172c:	80 6b       	ori	r24, 0xB0	; 176
    172e:	87 bb       	out	0x17, r24	; 23
    1730:	08 95       	ret

00001732 <enc28j60_enable>:
    1732:	c4 98       	cbi	0x18, 4	; 24
    1734:	08 95       	ret

00001736 <enc28j60_disable>:
    1736:	c4 9a       	sbi	0x18, 4	; 24
    1738:	08 95       	ret

0000173a <enc28j60_resetDisable>:
    173a:	8f 9a       	sbi	0x11, 7	; 17
    173c:	97 9a       	sbi	0x12, 7	; 18
    173e:	08 95       	ret

00001740 <enc28j60_resetEnable>:
    1740:	8f 9a       	sbi	0x11, 7	; 17
    1742:	97 98       	cbi	0x12, 7	; 18
    1744:	08 95       	ret

00001746 <SPI_MasterTransmit>:
    1746:	8f b9       	out	0x0f, r24	; 15
    1748:	77 9b       	sbis	0x0e, 7	; 14
    174a:	fe cf       	rjmp	.-4      	; 0x1748 <SPI_MasterTransmit+0x2>
    174c:	8f b1       	in	r24, 0x0f	; 15
    174e:	08 95       	ret

00001750 <enc28j60_ReadOperation>:
    1750:	1f 93       	push	r17
    1752:	df 93       	push	r29
    1754:	cf 93       	push	r28
    1756:	0f 92       	push	r0
    1758:	cd b7       	in	r28, 0x3d	; 61
    175a:	de b7       	in	r29, 0x3e	; 62
    175c:	16 2f       	mov	r17, r22
    175e:	89 83       	std	Y+1, r24	; 0x01
    1760:	0e 94 99 0b 	call	0x1732	; 0x1732 <enc28j60_enable>
    1764:	91 2f       	mov	r25, r17
    1766:	9f 71       	andi	r25, 0x1F	; 31
    1768:	89 81       	ldd	r24, Y+1	; 0x01
    176a:	89 2b       	or	r24, r25
    176c:	0e 94 a3 0b 	call	0x1746	; 0x1746 <SPI_MasterTransmit>
    1770:	8f ef       	ldi	r24, 0xFF	; 255
    1772:	0e 94 a3 0b 	call	0x1746	; 0x1746 <SPI_MasterTransmit>
    1776:	17 ff       	sbrs	r17, 7
    1778:	03 c0       	rjmp	.+6      	; 0x1780 <enc28j60_ReadOperation+0x30>
    177a:	8f ef       	ldi	r24, 0xFF	; 255
    177c:	0e 94 a3 0b 	call	0x1746	; 0x1746 <SPI_MasterTransmit>
    1780:	89 83       	std	Y+1, r24	; 0x01
    1782:	0e 94 9b 0b 	call	0x1736	; 0x1736 <enc28j60_disable>
    1786:	89 81       	ldd	r24, Y+1	; 0x01
    1788:	0f 90       	pop	r0
    178a:	cf 91       	pop	r28
    178c:	df 91       	pop	r29
    178e:	1f 91       	pop	r17
    1790:	08 95       	ret

00001792 <enc28j60_WriteOperation>:
    1792:	1f 93       	push	r17
    1794:	df 93       	push	r29
    1796:	cf 93       	push	r28
    1798:	00 d0       	rcall	.+0      	; 0x179a <enc28j60_WriteOperation+0x8>
    179a:	cd b7       	in	r28, 0x3d	; 61
    179c:	de b7       	in	r29, 0x3e	; 62
    179e:	18 2f       	mov	r17, r24
    17a0:	4a 83       	std	Y+2, r20	; 0x02
    17a2:	69 83       	std	Y+1, r22	; 0x01
    17a4:	0e 94 99 0b 	call	0x1732	; 0x1732 <enc28j60_enable>
    17a8:	69 81       	ldd	r22, Y+1	; 0x01
    17aa:	86 2f       	mov	r24, r22
    17ac:	8f 71       	andi	r24, 0x1F	; 31
    17ae:	81 2b       	or	r24, r17
    17b0:	0e 94 a3 0b 	call	0x1746	; 0x1746 <SPI_MasterTransmit>
    17b4:	4a 81       	ldd	r20, Y+2	; 0x02
    17b6:	84 2f       	mov	r24, r20
    17b8:	0e 94 a3 0b 	call	0x1746	; 0x1746 <SPI_MasterTransmit>
    17bc:	0e 94 9b 0b 	call	0x1736	; 0x1736 <enc28j60_disable>
    17c0:	0f 90       	pop	r0
    17c2:	0f 90       	pop	r0
    17c4:	cf 91       	pop	r28
    17c6:	df 91       	pop	r29
    17c8:	1f 91       	pop	r17
    17ca:	08 95       	ret

000017cc <enc28j60_ReadBufferMemory>:
    17cc:	cf 92       	push	r12
    17ce:	df 92       	push	r13
    17d0:	ef 92       	push	r14
    17d2:	ff 92       	push	r15
    17d4:	0f 93       	push	r16
    17d6:	1f 93       	push	r17
    17d8:	cf 93       	push	r28
    17da:	df 93       	push	r29
    17dc:	6c 01       	movw	r12, r24
    17de:	8b 01       	movw	r16, r22
    17e0:	0e 94 99 0b 	call	0x1732	; 0x1732 <enc28j60_enable>
    17e4:	8a e3       	ldi	r24, 0x3A	; 58
    17e6:	0e 94 a3 0b 	call	0x1746	; 0x1746 <SPI_MasterTransmit>
    17ea:	78 01       	movw	r14, r16
    17ec:	e6 01       	movw	r28, r12
    17ee:	07 c0       	rjmp	.+14     	; 0x17fe <enc28j60_ReadBufferMemory+0x32>
    17f0:	21 97       	sbiw	r28, 0x01	; 1
    17f2:	8f ef       	ldi	r24, 0xFF	; 255
    17f4:	0e 94 a3 0b 	call	0x1746	; 0x1746 <SPI_MasterTransmit>
    17f8:	f7 01       	movw	r30, r14
    17fa:	81 93       	st	Z+, r24
    17fc:	7f 01       	movw	r14, r30
    17fe:	20 97       	sbiw	r28, 0x00	; 0
    1800:	b9 f7       	brne	.-18     	; 0x17f0 <enc28j60_ReadBufferMemory+0x24>
    1802:	0c 0d       	add	r16, r12
    1804:	1d 1d       	adc	r17, r13
    1806:	f8 01       	movw	r30, r16
    1808:	10 82       	st	Z, r1
    180a:	0e 94 9b 0b 	call	0x1736	; 0x1736 <enc28j60_disable>
    180e:	df 91       	pop	r29
    1810:	cf 91       	pop	r28
    1812:	1f 91       	pop	r17
    1814:	0f 91       	pop	r16
    1816:	ff 90       	pop	r15
    1818:	ef 90       	pop	r14
    181a:	df 90       	pop	r13
    181c:	cf 90       	pop	r12
    181e:	08 95       	ret

00001820 <enc28j60_WriteBufferMemory>:
    1820:	0f 93       	push	r16
    1822:	1f 93       	push	r17
    1824:	cf 93       	push	r28
    1826:	df 93       	push	r29
    1828:	ec 01       	movw	r28, r24
    182a:	8b 01       	movw	r16, r22
    182c:	0e 94 99 0b 	call	0x1732	; 0x1732 <enc28j60_enable>
    1830:	8a e7       	ldi	r24, 0x7A	; 122
    1832:	04 c0       	rjmp	.+8      	; 0x183c <enc28j60_WriteBufferMemory+0x1c>
    1834:	21 97       	sbiw	r28, 0x01	; 1
    1836:	f8 01       	movw	r30, r16
    1838:	81 91       	ld	r24, Z+
    183a:	8f 01       	movw	r16, r30
    183c:	0e 94 a3 0b 	call	0x1746	; 0x1746 <SPI_MasterTransmit>
    1840:	20 97       	sbiw	r28, 0x00	; 0
    1842:	c1 f7       	brne	.-16     	; 0x1834 <enc28j60_WriteBufferMemory+0x14>
    1844:	0e 94 9b 0b 	call	0x1736	; 0x1736 <enc28j60_disable>
    1848:	df 91       	pop	r29
    184a:	cf 91       	pop	r28
    184c:	1f 91       	pop	r17
    184e:	0f 91       	pop	r16
    1850:	08 95       	ret

00001852 <enc28j60_setBank>:
    1852:	1f 93       	push	r17
    1854:	cf 93       	push	r28
    1856:	df 93       	push	r29
    1858:	18 2f       	mov	r17, r24
    185a:	c8 2f       	mov	r28, r24
    185c:	d0 e0       	ldi	r29, 0x00	; 0
    185e:	c0 76       	andi	r28, 0x60	; 96
    1860:	d0 70       	andi	r29, 0x00	; 0
    1862:	20 91 95 02 	lds	r18, 0x0295
    1866:	30 e0       	ldi	r19, 0x00	; 0
    1868:	c2 17       	cp	r28, r18
    186a:	d3 07       	cpc	r29, r19
    186c:	91 f0       	breq	.+36     	; 0x1892 <enc28j60_setBank+0x40>
    186e:	80 ea       	ldi	r24, 0xA0	; 160
    1870:	6f e1       	ldi	r22, 0x1F	; 31
    1872:	43 e0       	ldi	r20, 0x03	; 3
    1874:	0e 94 c9 0b 	call	0x1792	; 0x1792 <enc28j60_WriteOperation>
    1878:	ae 01       	movw	r20, r28
    187a:	85 e0       	ldi	r24, 0x05	; 5
    187c:	55 95       	asr	r21
    187e:	47 95       	ror	r20
    1880:	8a 95       	dec	r24
    1882:	e1 f7       	brne	.-8      	; 0x187c <enc28j60_setBank+0x2a>
    1884:	80 e8       	ldi	r24, 0x80	; 128
    1886:	6f e1       	ldi	r22, 0x1F	; 31
    1888:	0e 94 c9 0b 	call	0x1792	; 0x1792 <enc28j60_WriteOperation>
    188c:	10 76       	andi	r17, 0x60	; 96
    188e:	10 93 95 02 	sts	0x0295, r17
    1892:	df 91       	pop	r29
    1894:	cf 91       	pop	r28
    1896:	1f 91       	pop	r17
    1898:	08 95       	ret

0000189a <enc28j60_SystemReset>:
    189a:	0e 94 99 0b 	call	0x1732	; 0x1732 <enc28j60_enable>
    189e:	8f ef       	ldi	r24, 0xFF	; 255
    18a0:	0e 94 a3 0b 	call	0x1746	; 0x1746 <SPI_MasterTransmit>
    18a4:	0e 94 9b 0b 	call	0x1736	; 0x1736 <enc28j60_disable>
    18a8:	08 95       	ret

000018aa <enc28j60_ReadControlRegister>:
    18aa:	df 93       	push	r29
    18ac:	cf 93       	push	r28
    18ae:	0f 92       	push	r0
    18b0:	cd b7       	in	r28, 0x3d	; 61
    18b2:	de b7       	in	r29, 0x3e	; 62
    18b4:	68 2f       	mov	r22, r24
    18b6:	69 83       	std	Y+1, r22	; 0x01
    18b8:	0e 94 29 0c 	call	0x1852	; 0x1852 <enc28j60_setBank>
    18bc:	80 e0       	ldi	r24, 0x00	; 0
    18be:	69 81       	ldd	r22, Y+1	; 0x01
    18c0:	0e 94 a8 0b 	call	0x1750	; 0x1750 <enc28j60_ReadOperation>
    18c4:	0f 90       	pop	r0
    18c6:	cf 91       	pop	r28
    18c8:	df 91       	pop	r29
    18ca:	08 95       	ret

000018cc <enc28j60_WriteControlRegister>:
    18cc:	1f 93       	push	r17
    18ce:	df 93       	push	r29
    18d0:	cf 93       	push	r28
    18d2:	0f 92       	push	r0
    18d4:	cd b7       	in	r28, 0x3d	; 61
    18d6:	de b7       	in	r29, 0x3e	; 62
    18d8:	18 2f       	mov	r17, r24
    18da:	69 83       	std	Y+1, r22	; 0x01
    18dc:	0e 94 29 0c 	call	0x1852	; 0x1852 <enc28j60_setBank>
    18e0:	80 e4       	ldi	r24, 0x40	; 64
    18e2:	61 2f       	mov	r22, r17
    18e4:	49 81       	ldd	r20, Y+1	; 0x01
    18e6:	0e 94 c9 0b 	call	0x1792	; 0x1792 <enc28j60_WriteOperation>
    18ea:	0f 90       	pop	r0
    18ec:	cf 91       	pop	r28
    18ee:	df 91       	pop	r29
    18f0:	1f 91       	pop	r17
    18f2:	08 95       	ret

000018f4 <enc28j60_ReadPhyRegister>:
    18f4:	ef 92       	push	r14
    18f6:	ff 92       	push	r15
    18f8:	cf 93       	push	r28
    18fa:	df 93       	push	r29
    18fc:	68 2f       	mov	r22, r24
    18fe:	84 ed       	ldi	r24, 0xD4	; 212
    1900:	0e 94 66 0c 	call	0x18cc	; 0x18cc <enc28j60_WriteControlRegister>
    1904:	80 e8       	ldi	r24, 0x80	; 128
    1906:	62 ed       	ldi	r22, 0xD2	; 210
    1908:	41 e0       	ldi	r20, 0x01	; 1
    190a:	0e 94 c9 0b 	call	0x1792	; 0x1792 <enc28j60_WriteOperation>
    190e:	8a ee       	ldi	r24, 0xEA	; 234
    1910:	0e 94 55 0c 	call	0x18aa	; 0x18aa <enc28j60_ReadControlRegister>
    1914:	80 fd       	sbrc	r24, 0
    1916:	fb cf       	rjmp	.-10     	; 0x190e <enc28j60_ReadPhyRegister+0x1a>
    1918:	80 ea       	ldi	r24, 0xA0	; 160
    191a:	62 ed       	ldi	r22, 0xD2	; 210
    191c:	41 e0       	ldi	r20, 0x01	; 1
    191e:	0e 94 c9 0b 	call	0x1792	; 0x1792 <enc28j60_WriteOperation>
    1922:	88 ed       	ldi	r24, 0xD8	; 216
    1924:	0e 94 55 0c 	call	0x18aa	; 0x18aa <enc28j60_ReadControlRegister>
    1928:	c8 2f       	mov	r28, r24
    192a:	d0 e0       	ldi	r29, 0x00	; 0
    192c:	89 ed       	ldi	r24, 0xD9	; 217
    192e:	0e 94 55 0c 	call	0x18aa	; 0x18aa <enc28j60_ReadControlRegister>
    1932:	38 2f       	mov	r19, r24
    1934:	20 e0       	ldi	r18, 0x00	; 0
    1936:	c2 2b       	or	r28, r18
    1938:	d3 2b       	or	r29, r19
    193a:	ce 01       	movw	r24, r28
    193c:	df 91       	pop	r29
    193e:	cf 91       	pop	r28
    1940:	ff 90       	pop	r15
    1942:	ef 90       	pop	r14
    1944:	08 95       	ret

00001946 <enc28j60_WritePhyRegister>:
    1946:	1f 93       	push	r17
    1948:	df 93       	push	r29
    194a:	cf 93       	push	r28
    194c:	0f 92       	push	r0
    194e:	cd b7       	in	r28, 0x3d	; 61
    1950:	de b7       	in	r29, 0x3e	; 62
    1952:	98 2f       	mov	r25, r24
    1954:	16 2f       	mov	r17, r22
    1956:	84 ed       	ldi	r24, 0xD4	; 212
    1958:	69 2f       	mov	r22, r25
    195a:	79 83       	std	Y+1, r23	; 0x01
    195c:	0e 94 66 0c 	call	0x18cc	; 0x18cc <enc28j60_WriteControlRegister>
    1960:	86 ed       	ldi	r24, 0xD6	; 214
    1962:	61 2f       	mov	r22, r17
    1964:	0e 94 66 0c 	call	0x18cc	; 0x18cc <enc28j60_WriteControlRegister>
    1968:	87 ed       	ldi	r24, 0xD7	; 215
    196a:	79 81       	ldd	r23, Y+1	; 0x01
    196c:	67 2f       	mov	r22, r23
    196e:	0e 94 66 0c 	call	0x18cc	; 0x18cc <enc28j60_WriteControlRegister>
    1972:	8a ee       	ldi	r24, 0xEA	; 234
    1974:	0e 94 55 0c 	call	0x18aa	; 0x18aa <enc28j60_ReadControlRegister>
    1978:	80 fd       	sbrc	r24, 0
    197a:	fb cf       	rjmp	.-10     	; 0x1972 <enc28j60_WritePhyRegister+0x2c>
    197c:	0f 90       	pop	r0
    197e:	cf 91       	pop	r28
    1980:	df 91       	pop	r29
    1982:	1f 91       	pop	r17
    1984:	08 95       	ret

00001986 <enc28j60_init>:
    1986:	0e 94 9d 0b 	call	0x173a	; 0x173a <enc28j60_resetDisable>
    198a:	0e 94 4d 0c 	call	0x189a	; 0x189a <enc28j60_SystemReset>
    198e:	10 92 94 02 	sts	0x0294, r1
    1992:	10 92 93 02 	sts	0x0293, r1
    1996:	88 e0       	ldi	r24, 0x08	; 8
    1998:	60 e0       	ldi	r22, 0x00	; 0
    199a:	0e 94 66 0c 	call	0x18cc	; 0x18cc <enc28j60_WriteControlRegister>
    199e:	89 e0       	ldi	r24, 0x09	; 9
    19a0:	60 e0       	ldi	r22, 0x00	; 0
    19a2:	0e 94 66 0c 	call	0x18cc	; 0x18cc <enc28j60_WriteControlRegister>
    19a6:	8a e0       	ldi	r24, 0x0A	; 10
    19a8:	6f ef       	ldi	r22, 0xFF	; 255
    19aa:	0e 94 66 0c 	call	0x18cc	; 0x18cc <enc28j60_WriteControlRegister>
    19ae:	8b e0       	ldi	r24, 0x0B	; 11
    19b0:	69 e1       	ldi	r22, 0x19	; 25
    19b2:	0e 94 66 0c 	call	0x18cc	; 0x18cc <enc28j60_WriteControlRegister>
    19b6:	8c e0       	ldi	r24, 0x0C	; 12
    19b8:	60 e0       	ldi	r22, 0x00	; 0
    19ba:	0e 94 66 0c 	call	0x18cc	; 0x18cc <enc28j60_WriteControlRegister>
    19be:	8d e0       	ldi	r24, 0x0D	; 13
    19c0:	60 e0       	ldi	r22, 0x00	; 0
    19c2:	0e 94 66 0c 	call	0x18cc	; 0x18cc <enc28j60_WriteControlRegister>
    19c6:	84 e0       	ldi	r24, 0x04	; 4
    19c8:	60 e0       	ldi	r22, 0x00	; 0
    19ca:	0e 94 66 0c 	call	0x18cc	; 0x18cc <enc28j60_WriteControlRegister>
    19ce:	85 e0       	ldi	r24, 0x05	; 5
    19d0:	6a e1       	ldi	r22, 0x1A	; 26
    19d2:	0e 94 66 0c 	call	0x18cc	; 0x18cc <enc28j60_WriteControlRegister>
    19d6:	86 e0       	ldi	r24, 0x06	; 6
    19d8:	6f ef       	ldi	r22, 0xFF	; 255
    19da:	0e 94 66 0c 	call	0x18cc	; 0x18cc <enc28j60_WriteControlRegister>
    19de:	87 e0       	ldi	r24, 0x07	; 7
    19e0:	6f e1       	ldi	r22, 0x1F	; 31
    19e2:	0e 94 66 0c 	call	0x18cc	; 0x18cc <enc28j60_WriteControlRegister>
    19e6:	88 e3       	ldi	r24, 0x38	; 56
    19e8:	61 ea       	ldi	r22, 0xA1	; 161
    19ea:	0e 94 66 0c 	call	0x18cc	; 0x18cc <enc28j60_WriteControlRegister>
    19ee:	88 e2       	ldi	r24, 0x28	; 40
    19f0:	6f e3       	ldi	r22, 0x3F	; 63
    19f2:	0e 94 66 0c 	call	0x18cc	; 0x18cc <enc28j60_WriteControlRegister>
    19f6:	89 e2       	ldi	r24, 0x29	; 41
    19f8:	60 e3       	ldi	r22, 0x30	; 48
    19fa:	0e 94 66 0c 	call	0x18cc	; 0x18cc <enc28j60_WriteControlRegister>
    19fe:	80 e3       	ldi	r24, 0x30	; 48
    1a00:	69 ef       	ldi	r22, 0xF9	; 249
    1a02:	0e 94 66 0c 	call	0x18cc	; 0x18cc <enc28j60_WriteControlRegister>
    1a06:	81 e3       	ldi	r24, 0x31	; 49
    1a08:	67 ef       	ldi	r22, 0xF7	; 247
    1a0a:	0e 94 66 0c 	call	0x18cc	; 0x18cc <enc28j60_WriteControlRegister>
    1a0e:	80 ec       	ldi	r24, 0xC0	; 192
    1a10:	6d e0       	ldi	r22, 0x0D	; 13
    1a12:	0e 94 66 0c 	call	0x18cc	; 0x18cc <enc28j60_WriteControlRegister>
    1a16:	80 ea       	ldi	r24, 0xA0	; 160
    1a18:	61 ec       	ldi	r22, 0xC1	; 193
    1a1a:	40 e8       	ldi	r20, 0x80	; 128
    1a1c:	0e 94 c9 0b 	call	0x1792	; 0x1792 <enc28j60_WriteOperation>
    1a20:	82 ec       	ldi	r24, 0xC2	; 194
    1a22:	63 e3       	ldi	r22, 0x33	; 51
    1a24:	0e 94 66 0c 	call	0x18cc	; 0x18cc <enc28j60_WriteControlRegister>
    1a28:	8a ec       	ldi	r24, 0xCA	; 202
    1a2a:	6e ee       	ldi	r22, 0xEE	; 238
    1a2c:	0e 94 66 0c 	call	0x18cc	; 0x18cc <enc28j60_WriteControlRegister>
    1a30:	8b ec       	ldi	r24, 0xCB	; 203
    1a32:	65 e0       	ldi	r22, 0x05	; 5
    1a34:	0e 94 66 0c 	call	0x18cc	; 0x18cc <enc28j60_WriteControlRegister>
    1a38:	84 ec       	ldi	r24, 0xC4	; 196
    1a3a:	65 e1       	ldi	r22, 0x15	; 21
    1a3c:	0e 94 66 0c 	call	0x18cc	; 0x18cc <enc28j60_WriteControlRegister>
    1a40:	86 ec       	ldi	r24, 0xC6	; 198
    1a42:	62 e1       	ldi	r22, 0x12	; 18
    1a44:	0e 94 66 0c 	call	0x18cc	; 0x18cc <enc28j60_WriteControlRegister>
    1a48:	87 ec       	ldi	r24, 0xC7	; 199
    1a4a:	6c e0       	ldi	r22, 0x0C	; 12
    1a4c:	0e 94 66 0c 	call	0x18cc	; 0x18cc <enc28j60_WriteControlRegister>
    1a50:	81 ee       	ldi	r24, 0xE1	; 225
    1a52:	6b e3       	ldi	r22, 0x3B	; 59
    1a54:	0e 94 66 0c 	call	0x18cc	; 0x18cc <enc28j60_WriteControlRegister>
    1a58:	80 ee       	ldi	r24, 0xE0	; 224
    1a5a:	60 ee       	ldi	r22, 0xE0	; 224
    1a5c:	0e 94 66 0c 	call	0x18cc	; 0x18cc <enc28j60_WriteControlRegister>
    1a60:	83 ee       	ldi	r24, 0xE3	; 227
    1a62:	6b e5       	ldi	r22, 0x5B	; 91
    1a64:	0e 94 66 0c 	call	0x18cc	; 0x18cc <enc28j60_WriteControlRegister>
    1a68:	82 ee       	ldi	r24, 0xE2	; 226
    1a6a:	63 ea       	ldi	r22, 0xA3	; 163
    1a6c:	0e 94 66 0c 	call	0x18cc	; 0x18cc <enc28j60_WriteControlRegister>
    1a70:	85 ee       	ldi	r24, 0xE5	; 229
    1a72:	64 e0       	ldi	r22, 0x04	; 4
    1a74:	0e 94 66 0c 	call	0x18cc	; 0x18cc <enc28j60_WriteControlRegister>
    1a78:	84 ee       	ldi	r24, 0xE4	; 228
    1a7a:	60 e0       	ldi	r22, 0x00	; 0
    1a7c:	0e 94 66 0c 	call	0x18cc	; 0x18cc <enc28j60_WriteControlRegister>
    1a80:	80 e0       	ldi	r24, 0x00	; 0
    1a82:	60 e0       	ldi	r22, 0x00	; 0
    1a84:	71 e0       	ldi	r23, 0x01	; 1
    1a86:	0e 94 a3 0c 	call	0x1946	; 0x1946 <enc28j60_WritePhyRegister>
    1a8a:	80 e1       	ldi	r24, 0x10	; 16
    1a8c:	60 e0       	ldi	r22, 0x00	; 0
    1a8e:	71 e0       	ldi	r23, 0x01	; 1
    1a90:	0e 94 a3 0c 	call	0x1946	; 0x1946 <enc28j60_WritePhyRegister>
    1a94:	8f e1       	ldi	r24, 0x1F	; 31
    1a96:	0e 94 29 0c 	call	0x1852	; 0x1852 <enc28j60_setBank>
    1a9a:	80 e8       	ldi	r24, 0x80	; 128
    1a9c:	6b e1       	ldi	r22, 0x1B	; 27
    1a9e:	40 ec       	ldi	r20, 0xC0	; 192
    1aa0:	0e 94 c9 0b 	call	0x1792	; 0x1792 <enc28j60_WriteOperation>
    1aa4:	80 e8       	ldi	r24, 0x80	; 128
    1aa6:	6f e1       	ldi	r22, 0x1F	; 31
    1aa8:	44 e1       	ldi	r20, 0x14	; 20
    1aaa:	0e 94 c9 0b 	call	0x1792	; 0x1792 <enc28j60_WriteOperation>
    1aae:	08 95       	ret

00001ab0 <enc28j60_getEthernetRevisionID>:
    1ab0:	82 e7       	ldi	r24, 0x72	; 114
    1ab2:	0e 94 55 0c 	call	0x18aa	; 0x18aa <enc28j60_ReadControlRegister>
    1ab6:	08 95       	ret

00001ab8 <enc28j60_receivePacket>:
    1ab8:	af 92       	push	r10
    1aba:	bf 92       	push	r11
    1abc:	cf 92       	push	r12
    1abe:	df 92       	push	r13
    1ac0:	ef 92       	push	r14
    1ac2:	ff 92       	push	r15
    1ac4:	0f 93       	push	r16
    1ac6:	1f 93       	push	r17
    1ac8:	df 93       	push	r29
    1aca:	cf 93       	push	r28
    1acc:	cd b7       	in	r28, 0x3d	; 61
    1ace:	de b7       	in	r29, 0x3e	; 62
    1ad0:	27 97       	sbiw	r28, 0x07	; 7
    1ad2:	0f b6       	in	r0, 0x3f	; 63
    1ad4:	f8 94       	cli
    1ad6:	de bf       	out	0x3e, r29	; 62
    1ad8:	0f be       	out	0x3f, r0	; 63
    1ada:	cd bf       	out	0x3d, r28	; 61
    1adc:	6c 01       	movw	r12, r24
    1ade:	5b 01       	movw	r10, r22
    1ae0:	89 e3       	ldi	r24, 0x39	; 57
    1ae2:	0e 94 55 0c 	call	0x18aa	; 0x18aa <enc28j60_ReadControlRegister>
    1ae6:	88 23       	and	r24, r24
    1ae8:	d1 f1       	breq	.+116    	; 0x1b5e <enc28j60_receivePacket+0xa6>
    1aea:	60 91 93 02 	lds	r22, 0x0293
    1aee:	00 91 94 02 	lds	r16, 0x0294
    1af2:	80 e0       	ldi	r24, 0x00	; 0
    1af4:	0e 94 66 0c 	call	0x18cc	; 0x18cc <enc28j60_WriteControlRegister>
    1af8:	81 e0       	ldi	r24, 0x01	; 1
    1afa:	60 2f       	mov	r22, r16
    1afc:	0e 94 66 0c 	call	0x18cc	; 0x18cc <enc28j60_WriteControlRegister>
    1b00:	86 e0       	ldi	r24, 0x06	; 6
    1b02:	90 e0       	ldi	r25, 0x00	; 0
    1b04:	be 01       	movw	r22, r28
    1b06:	6f 5f       	subi	r22, 0xFF	; 255
    1b08:	7f 4f       	sbci	r23, 0xFF	; 255
    1b0a:	0e 94 e6 0b 	call	0x17cc	; 0x17cc <enc28j60_ReadBufferMemory>
    1b0e:	9a 81       	ldd	r25, Y+2	; 0x02
    1b10:	80 e0       	ldi	r24, 0x00	; 0
    1b12:	e9 80       	ldd	r14, Y+1	; 0x01
    1b14:	ff 24       	eor	r15, r15
    1b16:	e8 2a       	or	r14, r24
    1b18:	f9 2a       	or	r15, r25
    1b1a:	f0 92 94 02 	sts	0x0294, r15
    1b1e:	e0 92 93 02 	sts	0x0293, r14
    1b22:	0b 81       	ldd	r16, Y+3	; 0x03
    1b24:	10 e0       	ldi	r17, 0x00	; 0
    1b26:	9c 81       	ldd	r25, Y+4	; 0x04
    1b28:	80 e0       	ldi	r24, 0x00	; 0
    1b2a:	08 2b       	or	r16, r24
    1b2c:	19 2b       	or	r17, r25
    1b2e:	04 50       	subi	r16, 0x04	; 4
    1b30:	10 40       	sbci	r17, 0x00	; 0
    1b32:	c0 16       	cp	r12, r16
    1b34:	d1 06       	cpc	r13, r17
    1b36:	08 f4       	brcc	.+2      	; 0x1b3a <enc28j60_receivePacket+0x82>
    1b38:	86 01       	movw	r16, r12
    1b3a:	c8 01       	movw	r24, r16
    1b3c:	b5 01       	movw	r22, r10
    1b3e:	0e 94 e6 0b 	call	0x17cc	; 0x17cc <enc28j60_ReadBufferMemory>
    1b42:	8c e0       	ldi	r24, 0x0C	; 12
    1b44:	6e 2d       	mov	r22, r14
    1b46:	0e 94 66 0c 	call	0x18cc	; 0x18cc <enc28j60_WriteControlRegister>
    1b4a:	8d e0       	ldi	r24, 0x0D	; 13
    1b4c:	6f 2d       	mov	r22, r15
    1b4e:	0e 94 66 0c 	call	0x18cc	; 0x18cc <enc28j60_WriteControlRegister>
    1b52:	80 e8       	ldi	r24, 0x80	; 128
    1b54:	6e e1       	ldi	r22, 0x1E	; 30
    1b56:	40 e4       	ldi	r20, 0x40	; 64
    1b58:	0e 94 c9 0b 	call	0x1792	; 0x1792 <enc28j60_WriteOperation>
    1b5c:	02 c0       	rjmp	.+4      	; 0x1b62 <enc28j60_receivePacket+0xaa>
    1b5e:	00 e0       	ldi	r16, 0x00	; 0
    1b60:	10 e0       	ldi	r17, 0x00	; 0
    1b62:	c8 01       	movw	r24, r16
    1b64:	27 96       	adiw	r28, 0x07	; 7
    1b66:	0f b6       	in	r0, 0x3f	; 63
    1b68:	f8 94       	cli
    1b6a:	de bf       	out	0x3e, r29	; 62
    1b6c:	0f be       	out	0x3f, r0	; 63
    1b6e:	cd bf       	out	0x3d, r28	; 61
    1b70:	cf 91       	pop	r28
    1b72:	df 91       	pop	r29
    1b74:	1f 91       	pop	r17
    1b76:	0f 91       	pop	r16
    1b78:	ff 90       	pop	r15
    1b7a:	ef 90       	pop	r14
    1b7c:	df 90       	pop	r13
    1b7e:	cf 90       	pop	r12
    1b80:	bf 90       	pop	r11
    1b82:	af 90       	pop	r10
    1b84:	08 95       	ret

00001b86 <enc28j60_hardwareChecksum>:
    1b86:	ef 92       	push	r14
    1b88:	ff 92       	push	r15
    1b8a:	0f 93       	push	r16
    1b8c:	1f 93       	push	r17
    1b8e:	cf 93       	push	r28
    1b90:	df 93       	push	r29
    1b92:	ec 01       	movw	r28, r24
    1b94:	8b 01       	movw	r16, r22
    1b96:	68 2f       	mov	r22, r24
    1b98:	6f 5f       	subi	r22, 0xFF	; 255
    1b9a:	80 e1       	ldi	r24, 0x10	; 16
    1b9c:	0e 94 66 0c 	call	0x18cc	; 0x18cc <enc28j60_WriteControlRegister>
    1ba0:	9e 01       	movw	r18, r28
    1ba2:	2f 5f       	subi	r18, 0xFF	; 255
    1ba4:	35 4e       	sbci	r19, 0xE5	; 229
    1ba6:	81 e1       	ldi	r24, 0x11	; 17
    1ba8:	63 2f       	mov	r22, r19
    1baa:	0e 94 66 0c 	call	0x18cc	; 0x18cc <enc28j60_WriteControlRegister>
    1bae:	6c 2f       	mov	r22, r28
    1bb0:	60 0f       	add	r22, r16
    1bb2:	82 e1       	ldi	r24, 0x12	; 18
    1bb4:	0e 94 66 0c 	call	0x18cc	; 0x18cc <enc28j60_WriteControlRegister>
    1bb8:	c0 50       	subi	r28, 0x00	; 0
    1bba:	d6 4e       	sbci	r29, 0xE6	; 230
    1bbc:	c0 0f       	add	r28, r16
    1bbe:	d1 1f       	adc	r29, r17
    1bc0:	83 e1       	ldi	r24, 0x13	; 19
    1bc2:	7e 01       	movw	r14, r28
    1bc4:	6f 2d       	mov	r22, r15
    1bc6:	0e 94 66 0c 	call	0x18cc	; 0x18cc <enc28j60_WriteControlRegister>
    1bca:	80 ea       	ldi	r24, 0xA0	; 160
    1bcc:	6c e1       	ldi	r22, 0x1C	; 28
    1bce:	40 e2       	ldi	r20, 0x20	; 32
    1bd0:	0e 94 c9 0b 	call	0x1792	; 0x1792 <enc28j60_WriteOperation>
    1bd4:	80 e8       	ldi	r24, 0x80	; 128
    1bd6:	6f e1       	ldi	r22, 0x1F	; 31
    1bd8:	40 e2       	ldi	r20, 0x20	; 32
    1bda:	0e 94 c9 0b 	call	0x1792	; 0x1792 <enc28j60_WriteOperation>
    1bde:	8c e1       	ldi	r24, 0x1C	; 28
    1be0:	0e 94 55 0c 	call	0x18aa	; 0x18aa <enc28j60_ReadControlRegister>
    1be4:	85 ff       	sbrs	r24, 5
    1be6:	fb cf       	rjmp	.-10     	; 0x1bde <enc28j60_hardwareChecksum+0x58>
    1be8:	87 e1       	ldi	r24, 0x17	; 23
    1bea:	0e 94 55 0c 	call	0x18aa	; 0x18aa <enc28j60_ReadControlRegister>
    1bee:	c8 2f       	mov	r28, r24
    1bf0:	d0 e0       	ldi	r29, 0x00	; 0
    1bf2:	86 e1       	ldi	r24, 0x16	; 22
    1bf4:	0e 94 55 0c 	call	0x18aa	; 0x18aa <enc28j60_ReadControlRegister>
    1bf8:	38 2f       	mov	r19, r24
    1bfa:	20 e0       	ldi	r18, 0x00	; 0
    1bfc:	c2 2b       	or	r28, r18
    1bfe:	d3 2b       	or	r29, r19
    1c00:	ce 01       	movw	r24, r28
    1c02:	df 91       	pop	r29
    1c04:	cf 91       	pop	r28
    1c06:	1f 91       	pop	r17
    1c08:	0f 91       	pop	r16
    1c0a:	ff 90       	pop	r15
    1c0c:	ef 90       	pop	r14
    1c0e:	08 95       	ret

00001c10 <enc28j60_sendPacket>:
    1c10:	cf 92       	push	r12
    1c12:	df 92       	push	r13
    1c14:	ef 92       	push	r14
    1c16:	ff 92       	push	r15
    1c18:	0f 93       	push	r16
    1c1a:	1f 93       	push	r17
    1c1c:	df 93       	push	r29
    1c1e:	cf 93       	push	r28
    1c20:	00 d0       	rcall	.+0      	; 0x1c22 <enc28j60_sendPacket+0x12>
    1c22:	00 d0       	rcall	.+0      	; 0x1c24 <enc28j60_sendPacket+0x14>
    1c24:	cd b7       	in	r28, 0x3d	; 61
    1c26:	de b7       	in	r29, 0x3e	; 62
    1c28:	8c 01       	movw	r16, r24
    1c2a:	6b 01       	movw	r12, r22
    1c2c:	82 e0       	ldi	r24, 0x02	; 2
    1c2e:	60 e0       	ldi	r22, 0x00	; 0
    1c30:	4c 83       	std	Y+4, r20	; 0x04
    1c32:	0e 94 66 0c 	call	0x18cc	; 0x18cc <enc28j60_WriteControlRegister>
    1c36:	83 e0       	ldi	r24, 0x03	; 3
    1c38:	6a e1       	ldi	r22, 0x1A	; 26
    1c3a:	0e 94 66 0c 	call	0x18cc	; 0x18cc <enc28j60_WriteControlRegister>
    1c3e:	e1 2c       	mov	r14, r1
    1c40:	aa e1       	ldi	r26, 0x1A	; 26
    1c42:	fa 2e       	mov	r15, r26
    1c44:	e0 0e       	add	r14, r16
    1c46:	f1 1e       	adc	r15, r17
    1c48:	86 e0       	ldi	r24, 0x06	; 6
    1c4a:	6e 2d       	mov	r22, r14
    1c4c:	0e 94 66 0c 	call	0x18cc	; 0x18cc <enc28j60_WriteControlRegister>
    1c50:	87 e0       	ldi	r24, 0x07	; 7
    1c52:	6f 2d       	mov	r22, r15
    1c54:	0e 94 66 0c 	call	0x18cc	; 0x18cc <enc28j60_WriteControlRegister>
    1c58:	8e e0       	ldi	r24, 0x0E	; 14
    1c5a:	89 83       	std	Y+1, r24	; 0x01
    1c5c:	81 e0       	ldi	r24, 0x01	; 1
    1c5e:	90 e0       	ldi	r25, 0x00	; 0
    1c60:	be 01       	movw	r22, r28
    1c62:	6f 5f       	subi	r22, 0xFF	; 255
    1c64:	7f 4f       	sbci	r23, 0xFF	; 255
    1c66:	0e 94 10 0c 	call	0x1820	; 0x1820 <enc28j60_WriteBufferMemory>
    1c6a:	c8 01       	movw	r24, r16
    1c6c:	b6 01       	movw	r22, r12
    1c6e:	0e 94 10 0c 	call	0x1820	; 0x1820 <enc28j60_WriteBufferMemory>
    1c72:	4c 81       	ldd	r20, Y+4	; 0x04
    1c74:	44 23       	and	r20, r20
    1c76:	09 f4       	brne	.+2      	; 0x1c7a <enc28j60_sendPacket+0x6a>
    1c78:	78 c0       	rjmp	.+240    	; 0x1d6a <enc28j60_sendPacket+0x15a>
    1c7a:	e4 2e       	mov	r14, r20
    1c7c:	40 ff       	sbrs	r20, 0
    1c7e:	17 c0       	rjmp	.+46     	; 0x1cae <enc28j60_sendPacket+0x9e>
    1c80:	8e e0       	ldi	r24, 0x0E	; 14
    1c82:	90 e0       	ldi	r25, 0x00	; 0
    1c84:	64 e1       	ldi	r22, 0x14	; 20
    1c86:	70 e0       	ldi	r23, 0x00	; 0
    1c88:	0e 94 c3 0d 	call	0x1b86	; 0x1b86 <enc28j60_hardwareChecksum>
    1c8c:	9b 83       	std	Y+3, r25	; 0x03
    1c8e:	8a 83       	std	Y+2, r24	; 0x02
    1c90:	82 e0       	ldi	r24, 0x02	; 2
    1c92:	69 e1       	ldi	r22, 0x19	; 25
    1c94:	0e 94 66 0c 	call	0x18cc	; 0x18cc <enc28j60_WriteControlRegister>
    1c98:	83 e0       	ldi	r24, 0x03	; 3
    1c9a:	6a e1       	ldi	r22, 0x1A	; 26
    1c9c:	0e 94 66 0c 	call	0x18cc	; 0x18cc <enc28j60_WriteControlRegister>
    1ca0:	82 e0       	ldi	r24, 0x02	; 2
    1ca2:	90 e0       	ldi	r25, 0x00	; 0
    1ca4:	be 01       	movw	r22, r28
    1ca6:	6e 5f       	subi	r22, 0xFE	; 254
    1ca8:	7f 4f       	sbci	r23, 0xFF	; 255
    1caa:	0e 94 10 0c 	call	0x1820	; 0x1820 <enc28j60_WriteBufferMemory>
    1cae:	e1 fe       	sbrs	r14, 1
    1cb0:	5c c0       	rjmp	.+184    	; 0x1d6a <enc28j60_sendPacket+0x15a>
    1cb2:	02 52       	subi	r16, 0x22	; 34
    1cb4:	10 40       	sbci	r17, 0x00	; 0
    1cb6:	82 e2       	ldi	r24, 0x22	; 34
    1cb8:	90 e0       	ldi	r25, 0x00	; 0
    1cba:	b8 01       	movw	r22, r16
    1cbc:	0e 94 c3 0d 	call	0x1b86	; 0x1b86 <enc28j60_hardwareChecksum>
    1cc0:	f6 01       	movw	r30, r12
    1cc2:	40 e0       	ldi	r20, 0x00	; 0
    1cc4:	50 e0       	ldi	r21, 0x00	; 0
    1cc6:	20 e0       	ldi	r18, 0x00	; 0
    1cc8:	30 e0       	ldi	r19, 0x00	; 0
    1cca:	60 e0       	ldi	r22, 0x00	; 0
    1ccc:	70 e0       	ldi	r23, 0x00	; 0
    1cce:	a2 8d       	ldd	r26, Z+26	; 0x1a
    1cd0:	6a 0f       	add	r22, r26
    1cd2:	71 1d       	adc	r23, r1
    1cd4:	a3 8d       	ldd	r26, Z+27	; 0x1b
    1cd6:	2a 0f       	add	r18, r26
    1cd8:	31 1d       	adc	r19, r1
    1cda:	4e 5f       	subi	r20, 0xFE	; 254
    1cdc:	5f 4f       	sbci	r21, 0xFF	; 255
    1cde:	32 96       	adiw	r30, 0x02	; 2
    1ce0:	48 30       	cpi	r20, 0x08	; 8
    1ce2:	51 05       	cpc	r21, r1
    1ce4:	a1 f7       	brne	.-24     	; 0x1cce <enc28j60_sendPacket+0xbe>
    1ce6:	41 2f       	mov	r20, r17
    1ce8:	55 27       	eor	r21, r21
    1cea:	46 0f       	add	r20, r22
    1cec:	57 1f       	adc	r21, r23
    1cee:	f6 01       	movw	r30, r12
    1cf0:	67 89       	ldd	r22, Z+23	; 0x17
    1cf2:	10 70       	andi	r17, 0x00	; 0
    1cf4:	06 0f       	add	r16, r22
    1cf6:	11 1d       	adc	r17, r1
    1cf8:	02 0f       	add	r16, r18
    1cfa:	13 1f       	adc	r17, r19
    1cfc:	21 2f       	mov	r18, r17
    1cfe:	33 27       	eor	r19, r19
    1d00:	42 0f       	add	r20, r18
    1d02:	53 1f       	adc	r21, r19
    1d04:	34 2f       	mov	r19, r20
    1d06:	22 27       	eor	r18, r18
    1d08:	10 70       	andi	r17, 0x00	; 0
    1d0a:	20 2b       	or	r18, r16
    1d0c:	31 2b       	or	r19, r17
    1d0e:	45 2f       	mov	r20, r21
    1d10:	55 27       	eor	r21, r21
    1d12:	24 0f       	add	r18, r20
    1d14:	35 1f       	adc	r19, r21
    1d16:	32 27       	eor	r19, r18
    1d18:	23 27       	eor	r18, r19
    1d1a:	32 27       	eor	r19, r18
    1d1c:	80 95       	com	r24
    1d1e:	90 95       	com	r25
    1d20:	82 0f       	add	r24, r18
    1d22:	93 1f       	adc	r25, r19
    1d24:	9b 83       	std	Y+3, r25	; 0x03
    1d26:	8a 83       	std	Y+2, r24	; 0x02
    1d28:	82 17       	cp	r24, r18
    1d2a:	93 07       	cpc	r25, r19
    1d2c:	18 f4       	brcc	.+6      	; 0x1d34 <enc28j60_sendPacket+0x124>
    1d2e:	01 96       	adiw	r24, 0x01	; 1
    1d30:	9b 83       	std	Y+3, r25	; 0x03
    1d32:	8a 83       	std	Y+2, r24	; 0x02
    1d34:	8a 81       	ldd	r24, Y+2	; 0x02
    1d36:	9b 81       	ldd	r25, Y+3	; 0x03
    1d38:	80 95       	com	r24
    1d3a:	90 95       	com	r25
    1d3c:	9b 83       	std	Y+3, r25	; 0x03
    1d3e:	8a 83       	std	Y+2, r24	; 0x02
    1d40:	8e 01       	movw	r16, r28
    1d42:	0e 5f       	subi	r16, 0xFE	; 254
    1d44:	1f 4f       	sbci	r17, 0xFF	; 255
    1d46:	e2 fe       	sbrs	r14, 2
    1d48:	03 c0       	rjmp	.+6      	; 0x1d50 <enc28j60_sendPacket+0x140>
    1d4a:	82 e0       	ldi	r24, 0x02	; 2
    1d4c:	69 e2       	ldi	r22, 0x29	; 41
    1d4e:	02 c0       	rjmp	.+4      	; 0x1d54 <enc28j60_sendPacket+0x144>
    1d50:	82 e0       	ldi	r24, 0x02	; 2
    1d52:	63 e3       	ldi	r22, 0x33	; 51
    1d54:	0e 94 66 0c 	call	0x18cc	; 0x18cc <enc28j60_WriteControlRegister>
    1d58:	83 e0       	ldi	r24, 0x03	; 3
    1d5a:	6a e1       	ldi	r22, 0x1A	; 26
    1d5c:	0e 94 66 0c 	call	0x18cc	; 0x18cc <enc28j60_WriteControlRegister>
    1d60:	82 e0       	ldi	r24, 0x02	; 2
    1d62:	90 e0       	ldi	r25, 0x00	; 0
    1d64:	b8 01       	movw	r22, r16
    1d66:	0e 94 10 0c 	call	0x1820	; 0x1820 <enc28j60_WriteBufferMemory>
    1d6a:	8f e1       	ldi	r24, 0x1F	; 31
    1d6c:	0e 94 29 0c 	call	0x1852	; 0x1852 <enc28j60_setBank>
    1d70:	80 ea       	ldi	r24, 0xA0	; 160
    1d72:	6c e1       	ldi	r22, 0x1C	; 28
    1d74:	48 e0       	ldi	r20, 0x08	; 8
    1d76:	0e 94 c9 0b 	call	0x1792	; 0x1792 <enc28j60_WriteOperation>
    1d7a:	80 e8       	ldi	r24, 0x80	; 128
    1d7c:	6f e1       	ldi	r22, 0x1F	; 31
    1d7e:	48 e0       	ldi	r20, 0x08	; 8
    1d80:	0e 94 c9 0b 	call	0x1792	; 0x1792 <enc28j60_WriteOperation>
    1d84:	8c e1       	ldi	r24, 0x1C	; 28
    1d86:	0e 94 55 0c 	call	0x18aa	; 0x18aa <enc28j60_ReadControlRegister>
    1d8a:	81 ff       	sbrs	r24, 1
    1d8c:	05 c0       	rjmp	.+10     	; 0x1d98 <enc28j60_sendPacket+0x188>
    1d8e:	80 e8       	ldi	r24, 0x80	; 128
    1d90:	6f e1       	ldi	r22, 0x1F	; 31
    1d92:	48 e0       	ldi	r20, 0x08	; 8
    1d94:	0e 94 c9 0b 	call	0x1792	; 0x1792 <enc28j60_WriteOperation>
    1d98:	0f 90       	pop	r0
    1d9a:	0f 90       	pop	r0
    1d9c:	0f 90       	pop	r0
    1d9e:	0f 90       	pop	r0
    1da0:	cf 91       	pop	r28
    1da2:	df 91       	pop	r29
    1da4:	1f 91       	pop	r17
    1da6:	0f 91       	pop	r16
    1da8:	ff 90       	pop	r15
    1daa:	ef 90       	pop	r14
    1dac:	df 90       	pop	r13
    1dae:	cf 90       	pop	r12
    1db0:	08 95       	ret

00001db2 <SramAddrSet>:
    1db2:	2f ef       	ldi	r18, 0xFF	; 255
    1db4:	2a bb       	out	0x1a, r18	; 26
    1db6:	21 b3       	in	r18, 0x11	; 17
    1db8:	24 66       	ori	r18, 0x64	; 100
    1dba:	21 bb       	out	0x11, r18	; 17
    1dbc:	95 98       	cbi	0x12, 5	; 18
    1dbe:	92 9a       	sbi	0x12, 2	; 18
    1dc0:	27 b3       	in	r18, 0x17	; 23
    1dc2:	23 60       	ori	r18, 0x03	; 3
    1dc4:	27 bb       	out	0x17, r18	; 23
    1dc6:	28 b3       	in	r18, 0x18	; 24
    1dc8:	23 60       	ori	r18, 0x03	; 3
    1dca:	28 bb       	out	0x18, r18	; 24
    1dcc:	96 98       	cbi	0x12, 6	; 18
    1dce:	9c 01       	movw	r18, r24
    1dd0:	44 27       	eor	r20, r20
    1dd2:	55 27       	eor	r21, r21
    1dd4:	2b bb       	out	0x1b, r18	; 27
    1dd6:	96 9a       	sbi	0x12, 6	; 18
    1dd8:	c0 98       	cbi	0x18, 0	; 24
    1dda:	96 98       	cbi	0x12, 6	; 18
    1ddc:	7b bb       	out	0x1b, r23	; 27
    1dde:	96 9a       	sbi	0x12, 6	; 18
    1de0:	c1 98       	cbi	0x18, 1	; 24
    1de2:	c0 9a       	sbi	0x18, 0	; 24
    1de4:	96 98       	cbi	0x12, 6	; 18
    1de6:	6b bb       	out	0x1b, r22	; 27
    1de8:	96 9a       	sbi	0x12, 6	; 18
    1dea:	88 b3       	in	r24, 0x18	; 24
    1dec:	8c 7f       	andi	r24, 0xFC	; 252
    1dee:	88 bb       	out	0x18, r24	; 24
    1df0:	92 98       	cbi	0x12, 2	; 18
    1df2:	08 95       	ret

00001df4 <SramInit>:
    1df4:	bf 92       	push	r11
    1df6:	cf 92       	push	r12
    1df8:	df 92       	push	r13
    1dfa:	ef 92       	push	r14
    1dfc:	ff 92       	push	r15
    1dfe:	0f 93       	push	r16
    1e00:	1f 93       	push	r17
    1e02:	e8 2f       	mov	r30, r24
    1e04:	ee 0f       	add	r30, r30
    1e06:	ee 0f       	add	r30, r30
    1e08:	ae 2f       	mov	r26, r30
    1e0a:	b0 e0       	ldi	r27, 0x00	; 0
    1e0c:	af 54       	subi	r26, 0x4F	; 79
    1e0e:	bf 4f       	sbci	r27, 0xFF	; 255
    1e10:	dc 90       	ld	r13, X
    1e12:	ef 5f       	subi	r30, 0xFF	; 255
    1e14:	ae 2f       	mov	r26, r30
    1e16:	b0 e0       	ldi	r27, 0x00	; 0
    1e18:	af 54       	subi	r26, 0x4F	; 79
    1e1a:	bf 4f       	sbci	r27, 0xFF	; 255
    1e1c:	bc 90       	ld	r11, X
    1e1e:	ef 5f       	subi	r30, 0xFF	; 255
    1e20:	f0 e0       	ldi	r31, 0x00	; 0
    1e22:	ef 54       	subi	r30, 0x4F	; 79
    1e24:	ff 4f       	sbci	r31, 0xFF	; 255
    1e26:	c0 80       	ld	r12, Z
    1e28:	ee 24       	eor	r14, r14
    1e2a:	ff 24       	eor	r15, r15
    1e2c:	87 01       	movw	r16, r14
    1e2e:	c8 01       	movw	r24, r16
    1e30:	b7 01       	movw	r22, r14
    1e32:	0e 94 d9 0e 	call	0x1db2	; 0x1db2 <SramAddrSet>
    1e36:	8a 9a       	sbi	0x11, 2	; 17
    1e38:	92 98       	cbi	0x12, 2	; 18
    1e3a:	88 b3       	in	r24, 0x18	; 24
    1e3c:	8c 7f       	andi	r24, 0xFC	; 252
    1e3e:	88 bb       	out	0x18, r24	; 24
    1e40:	a8 95       	wdr
    1e42:	80 e8       	ldi	r24, 0x80	; 128
    1e44:	9c e0       	ldi	r25, 0x0C	; 12
    1e46:	bb ba       	out	0x1b, r11	; 27
    1e48:	96 98       	cbi	0x12, 6	; 18
    1e4a:	96 9a       	sbi	0x12, 6	; 18
    1e4c:	db ba       	out	0x1b, r13	; 27
    1e4e:	96 98       	cbi	0x12, 6	; 18
    1e50:	96 9a       	sbi	0x12, 6	; 18
    1e52:	cb ba       	out	0x1b, r12	; 27
    1e54:	96 98       	cbi	0x12, 6	; 18
    1e56:	96 9a       	sbi	0x12, 6	; 18
    1e58:	db ba       	out	0x1b, r13	; 27
    1e5a:	96 98       	cbi	0x12, 6	; 18
    1e5c:	96 9a       	sbi	0x12, 6	; 18
    1e5e:	01 97       	sbiw	r24, 0x01	; 1
    1e60:	91 f7       	brne	.-28     	; 0x1e46 <SramInit+0x52>
    1e62:	80 e2       	ldi	r24, 0x20	; 32
    1e64:	90 e0       	ldi	r25, 0x00	; 0
    1e66:	a0 e0       	ldi	r26, 0x00	; 0
    1e68:	b0 e0       	ldi	r27, 0x00	; 0
    1e6a:	e8 0e       	add	r14, r24
    1e6c:	f9 1e       	adc	r15, r25
    1e6e:	0a 1f       	adc	r16, r26
    1e70:	1b 1f       	adc	r17, r27
    1e72:	90 ea       	ldi	r25, 0xA0	; 160
    1e74:	e9 16       	cp	r14, r25
    1e76:	95 e0       	ldi	r25, 0x05	; 5
    1e78:	f9 06       	cpc	r15, r25
    1e7a:	90 e0       	ldi	r25, 0x00	; 0
    1e7c:	09 07       	cpc	r16, r25
    1e7e:	90 e0       	ldi	r25, 0x00	; 0
    1e80:	19 07       	cpc	r17, r25
    1e82:	a9 f6       	brne	.-86     	; 0x1e2e <SramInit+0x3a>
    1e84:	95 9a       	sbi	0x12, 5	; 18
    1e86:	1f 91       	pop	r17
    1e88:	0f 91       	pop	r16
    1e8a:	ff 90       	pop	r15
    1e8c:	ef 90       	pop	r14
    1e8e:	df 90       	pop	r13
    1e90:	cf 90       	pop	r12
    1e92:	bf 90       	pop	r11
    1e94:	08 95       	ret

00001e96 <SramClear>:
    1e96:	df 92       	push	r13
    1e98:	ef 92       	push	r14
    1e9a:	ff 92       	push	r15
    1e9c:	0f 93       	push	r16
    1e9e:	1f 93       	push	r17
    1ea0:	ee 24       	eor	r14, r14
    1ea2:	ff 24       	eor	r15, r15
    1ea4:	87 01       	movw	r16, r14
    1ea6:	dd 24       	eor	r13, r13
    1ea8:	da 94       	dec	r13
    1eaa:	c8 01       	movw	r24, r16
    1eac:	b7 01       	movw	r22, r14
    1eae:	0e 94 d9 0e 	call	0x1db2	; 0x1db2 <SramAddrSet>
    1eb2:	8a 9a       	sbi	0x11, 2	; 17
    1eb4:	92 98       	cbi	0x12, 2	; 18
    1eb6:	88 b3       	in	r24, 0x18	; 24
    1eb8:	8c 7f       	andi	r24, 0xFC	; 252
    1eba:	88 bb       	out	0x18, r24	; 24
    1ebc:	da ba       	out	0x1a, r13	; 26
    1ebe:	1b ba       	out	0x1b, r1	; 27
    1ec0:	a8 95       	wdr
    1ec2:	80 e8       	ldi	r24, 0x80	; 128
    1ec4:	9c e0       	ldi	r25, 0x0C	; 12
    1ec6:	96 98       	cbi	0x12, 6	; 18
    1ec8:	96 9a       	sbi	0x12, 6	; 18
    1eca:	96 98       	cbi	0x12, 6	; 18
    1ecc:	96 9a       	sbi	0x12, 6	; 18
    1ece:	96 98       	cbi	0x12, 6	; 18
    1ed0:	96 9a       	sbi	0x12, 6	; 18
    1ed2:	96 98       	cbi	0x12, 6	; 18
    1ed4:	96 9a       	sbi	0x12, 6	; 18
    1ed6:	01 97       	sbiw	r24, 0x01	; 1
    1ed8:	b1 f7       	brne	.-20     	; 0x1ec6 <SramClear+0x30>
    1eda:	80 e2       	ldi	r24, 0x20	; 32
    1edc:	90 e0       	ldi	r25, 0x00	; 0
    1ede:	a0 e0       	ldi	r26, 0x00	; 0
    1ee0:	b0 e0       	ldi	r27, 0x00	; 0
    1ee2:	e8 0e       	add	r14, r24
    1ee4:	f9 1e       	adc	r15, r25
    1ee6:	0a 1f       	adc	r16, r26
    1ee8:	1b 1f       	adc	r17, r27
    1eea:	90 ea       	ldi	r25, 0xA0	; 160
    1eec:	e9 16       	cp	r14, r25
    1eee:	95 e0       	ldi	r25, 0x05	; 5
    1ef0:	f9 06       	cpc	r15, r25
    1ef2:	90 e0       	ldi	r25, 0x00	; 0
    1ef4:	09 07       	cpc	r16, r25
    1ef6:	90 e0       	ldi	r25, 0x00	; 0
    1ef8:	19 07       	cpc	r17, r25
    1efa:	b9 f6       	brne	.-82     	; 0x1eaa <SramClear+0x14>
    1efc:	95 9a       	sbi	0x12, 5	; 18
    1efe:	1f 91       	pop	r17
    1f00:	0f 91       	pop	r16
    1f02:	ff 90       	pop	r15
    1f04:	ef 90       	pop	r14
    1f06:	df 90       	pop	r13
    1f08:	08 95       	ret

00001f0a <SramScrollInit>:
    1f0a:	bf 92       	push	r11
    1f0c:	cf 92       	push	r12
    1f0e:	df 92       	push	r13
    1f10:	ef 92       	push	r14
    1f12:	ff 92       	push	r15
    1f14:	0f 93       	push	r16
    1f16:	1f 93       	push	r17
    1f18:	e8 2f       	mov	r30, r24
    1f1a:	ee 0f       	add	r30, r30
    1f1c:	ee 0f       	add	r30, r30
    1f1e:	ae 2f       	mov	r26, r30
    1f20:	b0 e0       	ldi	r27, 0x00	; 0
    1f22:	af 54       	subi	r26, 0x4F	; 79
    1f24:	bf 4f       	sbci	r27, 0xFF	; 255
    1f26:	dc 90       	ld	r13, X
    1f28:	ef 5f       	subi	r30, 0xFF	; 255
    1f2a:	ae 2f       	mov	r26, r30
    1f2c:	b0 e0       	ldi	r27, 0x00	; 0
    1f2e:	af 54       	subi	r26, 0x4F	; 79
    1f30:	bf 4f       	sbci	r27, 0xFF	; 255
    1f32:	bc 90       	ld	r11, X
    1f34:	ef 5f       	subi	r30, 0xFF	; 255
    1f36:	f0 e0       	ldi	r31, 0x00	; 0
    1f38:	ef 54       	subi	r30, 0x4F	; 79
    1f3a:	ff 4f       	sbci	r31, 0xFF	; 255
    1f3c:	c0 80       	ld	r12, Z
    1f3e:	30 e4       	ldi	r19, 0x40	; 64
    1f40:	e3 2e       	mov	r14, r19
    1f42:	3e e7       	ldi	r19, 0x7E	; 126
    1f44:	f3 2e       	mov	r15, r19
    1f46:	35 e0       	ldi	r19, 0x05	; 5
    1f48:	03 2f       	mov	r16, r19
    1f4a:	11 2d       	mov	r17, r1
    1f4c:	c8 01       	movw	r24, r16
    1f4e:	b7 01       	movw	r22, r14
    1f50:	0e 94 d9 0e 	call	0x1db2	; 0x1db2 <SramAddrSet>
    1f54:	8a 9a       	sbi	0x11, 2	; 17
    1f56:	92 98       	cbi	0x12, 2	; 18
    1f58:	88 b3       	in	r24, 0x18	; 24
    1f5a:	8c 7f       	andi	r24, 0xFC	; 252
    1f5c:	88 bb       	out	0x18, r24	; 24
    1f5e:	a8 95       	wdr
    1f60:	80 ec       	ldi	r24, 0xC0	; 192
    1f62:	bb ba       	out	0x1b, r11	; 27
    1f64:	96 98       	cbi	0x12, 6	; 18
    1f66:	96 9a       	sbi	0x12, 6	; 18
    1f68:	db ba       	out	0x1b, r13	; 27
    1f6a:	96 98       	cbi	0x12, 6	; 18
    1f6c:	96 9a       	sbi	0x12, 6	; 18
    1f6e:	cb ba       	out	0x1b, r12	; 27
    1f70:	96 98       	cbi	0x12, 6	; 18
    1f72:	96 9a       	sbi	0x12, 6	; 18
    1f74:	db ba       	out	0x1b, r13	; 27
    1f76:	96 98       	cbi	0x12, 6	; 18
    1f78:	96 9a       	sbi	0x12, 6	; 18
    1f7a:	81 50       	subi	r24, 0x01	; 1
    1f7c:	91 f7       	brne	.-28     	; 0x1f62 <SramScrollInit+0x58>
    1f7e:	80 e2       	ldi	r24, 0x20	; 32
    1f80:	90 e0       	ldi	r25, 0x00	; 0
    1f82:	a0 e0       	ldi	r26, 0x00	; 0
    1f84:	b0 e0       	ldi	r27, 0x00	; 0
    1f86:	e8 0e       	add	r14, r24
    1f88:	f9 1e       	adc	r15, r25
    1f8a:	0a 1f       	adc	r16, r26
    1f8c:	1b 1f       	adc	r17, r27
    1f8e:	90 ee       	ldi	r25, 0xE0	; 224
    1f90:	e9 16       	cp	r14, r25
    1f92:	93 e8       	ldi	r25, 0x83	; 131
    1f94:	f9 06       	cpc	r15, r25
    1f96:	95 e0       	ldi	r25, 0x05	; 5
    1f98:	09 07       	cpc	r16, r25
    1f9a:	90 e0       	ldi	r25, 0x00	; 0
    1f9c:	19 07       	cpc	r17, r25
    1f9e:	b1 f6       	brne	.-84     	; 0x1f4c <SramScrollInit+0x42>
    1fa0:	95 9a       	sbi	0x12, 5	; 18
    1fa2:	1f 91       	pop	r17
    1fa4:	0f 91       	pop	r16
    1fa6:	ff 90       	pop	r15
    1fa8:	ef 90       	pop	r14
    1faa:	df 90       	pop	r13
    1fac:	cf 90       	pop	r12
    1fae:	bf 90       	pop	r11
    1fb0:	08 95       	ret

00001fb2 <SramScrollClear>:
    1fb2:	ef 92       	push	r14
    1fb4:	ff 92       	push	r15
    1fb6:	0f 93       	push	r16
    1fb8:	1f 93       	push	r17
    1fba:	40 e4       	ldi	r20, 0x40	; 64
    1fbc:	e4 2e       	mov	r14, r20
    1fbe:	4e e7       	ldi	r20, 0x7E	; 126
    1fc0:	f4 2e       	mov	r15, r20
    1fc2:	45 e0       	ldi	r20, 0x05	; 5
    1fc4:	04 2f       	mov	r16, r20
    1fc6:	11 2d       	mov	r17, r1
    1fc8:	c8 01       	movw	r24, r16
    1fca:	b7 01       	movw	r22, r14
    1fcc:	0e 94 d9 0e 	call	0x1db2	; 0x1db2 <SramAddrSet>
    1fd0:	8a 9a       	sbi	0x11, 2	; 17
    1fd2:	92 98       	cbi	0x12, 2	; 18
    1fd4:	88 b3       	in	r24, 0x18	; 24
    1fd6:	8c 7f       	andi	r24, 0xFC	; 252
    1fd8:	88 bb       	out	0x18, r24	; 24
    1fda:	1b ba       	out	0x1b, r1	; 27
    1fdc:	a8 95       	wdr
    1fde:	80 ef       	ldi	r24, 0xF0	; 240
    1fe0:	96 98       	cbi	0x12, 6	; 18
    1fe2:	96 9a       	sbi	0x12, 6	; 18
    1fe4:	96 98       	cbi	0x12, 6	; 18
    1fe6:	96 9a       	sbi	0x12, 6	; 18
    1fe8:	96 98       	cbi	0x12, 6	; 18
    1fea:	96 9a       	sbi	0x12, 6	; 18
    1fec:	96 98       	cbi	0x12, 6	; 18
    1fee:	96 9a       	sbi	0x12, 6	; 18
    1ff0:	81 50       	subi	r24, 0x01	; 1
    1ff2:	b1 f7       	brne	.-20     	; 0x1fe0 <SramScrollClear+0x2e>
    1ff4:	80 e2       	ldi	r24, 0x20	; 32
    1ff6:	90 e0       	ldi	r25, 0x00	; 0
    1ff8:	a0 e0       	ldi	r26, 0x00	; 0
    1ffa:	b0 e0       	ldi	r27, 0x00	; 0
    1ffc:	e8 0e       	add	r14, r24
    1ffe:	f9 1e       	adc	r15, r25
    2000:	0a 1f       	adc	r16, r26
    2002:	1b 1f       	adc	r17, r27
    2004:	90 ee       	ldi	r25, 0xE0	; 224
    2006:	e9 16       	cp	r14, r25
    2008:	93 e8       	ldi	r25, 0x83	; 131
    200a:	f9 06       	cpc	r15, r25
    200c:	95 e0       	ldi	r25, 0x05	; 5
    200e:	09 07       	cpc	r16, r25
    2010:	90 e0       	ldi	r25, 0x00	; 0
    2012:	19 07       	cpc	r17, r25
    2014:	c9 f6       	brne	.-78     	; 0x1fc8 <SramScrollClear+0x16>
    2016:	1f 91       	pop	r17
    2018:	0f 91       	pop	r16
    201a:	ff 90       	pop	r15
    201c:	ef 90       	pop	r14
    201e:	08 95       	ret

00002020 <SramHZ16Set>:
    2020:	8f 92       	push	r8
    2022:	9f 92       	push	r9
    2024:	af 92       	push	r10
    2026:	bf 92       	push	r11
    2028:	cf 92       	push	r12
    202a:	df 92       	push	r13
    202c:	ef 92       	push	r14
    202e:	ff 92       	push	r15
    2030:	0f 93       	push	r16
    2032:	1f 93       	push	r17
    2034:	df 93       	push	r29
    2036:	cf 93       	push	r28
    2038:	0f 92       	push	r0
    203a:	cd b7       	in	r28, 0x3d	; 61
    203c:	de b7       	in	r29, 0x3e	; 62
    203e:	22 0f       	add	r18, r18
    2040:	22 0f       	add	r18, r18
    2042:	44 0f       	add	r20, r20
    2044:	44 0f       	add	r20, r20
    2046:	e2 2f       	mov	r30, r18
    2048:	f0 e0       	ldi	r31, 0x00	; 0
    204a:	ef 54       	subi	r30, 0x4F	; 79
    204c:	ff 4f       	sbci	r31, 0xFF	; 255
    204e:	c0 80       	ld	r12, Z
    2050:	2f 5f       	subi	r18, 0xFF	; 255
    2052:	e2 2f       	mov	r30, r18
    2054:	f0 e0       	ldi	r31, 0x00	; 0
    2056:	ef 54       	subi	r30, 0x4F	; 79
    2058:	ff 4f       	sbci	r31, 0xFF	; 255
    205a:	b0 80       	ld	r11, Z
    205c:	2f 5f       	subi	r18, 0xFF	; 255
    205e:	a2 2f       	mov	r26, r18
    2060:	b0 e0       	ldi	r27, 0x00	; 0
    2062:	af 54       	subi	r26, 0x4F	; 79
    2064:	bf 4f       	sbci	r27, 0xFF	; 255
    2066:	ac 90       	ld	r10, X
    2068:	a4 2f       	mov	r26, r20
    206a:	b0 e0       	ldi	r27, 0x00	; 0
    206c:	af 54       	subi	r26, 0x4F	; 79
    206e:	bf 4f       	sbci	r27, 0xFF	; 255
    2070:	dc 90       	ld	r13, X
    2072:	4f 5f       	subi	r20, 0xFF	; 255
    2074:	a4 2f       	mov	r26, r20
    2076:	b0 e0       	ldi	r27, 0x00	; 0
    2078:	af 54       	subi	r26, 0x4F	; 79
    207a:	bf 4f       	sbci	r27, 0xFF	; 255
    207c:	9c 90       	ld	r9, X
    207e:	4f 5f       	subi	r20, 0xFF	; 255
    2080:	e4 2f       	mov	r30, r20
    2082:	f0 e0       	ldi	r31, 0x00	; 0
    2084:	ef 54       	subi	r30, 0x4F	; 79
    2086:	ff 4f       	sbci	r31, 0xFF	; 255
    2088:	80 80       	ld	r8, Z
    208a:	54 e0       	ldi	r21, 0x04	; 4
    208c:	00 0f       	add	r16, r16
    208e:	11 1f       	adc	r17, r17
    2090:	5a 95       	dec	r21
    2092:	e1 f7       	brne	.-8      	; 0x208c <SramHZ16Set+0x6c>
    2094:	78 01       	movw	r14, r16
    2096:	00 e0       	ldi	r16, 0x00	; 0
    2098:	10 e0       	ldi	r17, 0x00	; 0
    209a:	20 91 a4 07 	lds	r18, 0x07A4
    209e:	30 91 a5 07 	lds	r19, 0x07A5
    20a2:	40 91 a6 07 	lds	r20, 0x07A6
    20a6:	50 91 a7 07 	lds	r21, 0x07A7
    20aa:	e2 0e       	add	r14, r18
    20ac:	f3 1e       	adc	r15, r19
    20ae:	04 1f       	adc	r16, r20
    20b0:	15 1f       	adc	r17, r21
    20b2:	9e e5       	ldi	r25, 0x5E	; 94
    20b4:	89 9f       	mul	r24, r25
    20b6:	c0 01       	movw	r24, r0
    20b8:	11 24       	eor	r1, r1
    20ba:	86 0f       	add	r24, r22
    20bc:	91 1d       	adc	r25, r1
    20be:	8f 5b       	subi	r24, 0xBF	; 191
    20c0:	9b 43       	sbci	r25, 0x3B	; 59
    20c2:	9c 01       	movw	r18, r24
    20c4:	b9 01       	movw	r22, r18
    20c6:	88 27       	eor	r24, r24
    20c8:	77 fd       	sbrc	r23, 7
    20ca:	80 95       	com	r24
    20cc:	98 2f       	mov	r25, r24
    20ce:	43 ea       	ldi	r20, 0xA3	; 163
    20d0:	56 e0       	ldi	r21, 0x06	; 6
    20d2:	24 ee       	ldi	r18, 0xE4	; 228
    20d4:	0e 94 ce 04 	call	0x99c	; 0x99c <ExtFlashPageDataRead>
    20d8:	20 e0       	ldi	r18, 0x00	; 0
    20da:	c8 01       	movw	r24, r16
    20dc:	b7 01       	movw	r22, r14
    20de:	29 83       	std	Y+1, r18	; 0x01
    20e0:	0e 94 d9 0e 	call	0x1db2	; 0x1db2 <SramAddrSet>
    20e4:	29 81       	ldd	r18, Y+1	; 0x01
    20e6:	82 2f       	mov	r24, r18
    20e8:	e8 2f       	mov	r30, r24
    20ea:	f0 e0       	ldi	r31, 0x00	; 0
    20ec:	ed 55       	subi	r30, 0x5D	; 93
    20ee:	f9 4f       	sbci	r31, 0xF9	; 249
    20f0:	40 81       	ld	r20, Z
    20f2:	34 a1       	ldd	r19, Z+36	; 0x24
    20f4:	98 e0       	ldi	r25, 0x08	; 8
    20f6:	47 fd       	sbrc	r20, 7
    20f8:	15 c0       	rjmp	.+42     	; 0x2124 <SramHZ16Set+0x104>
    20fa:	37 fd       	sbrc	r19, 7
    20fc:	08 c0       	rjmp	.+16     	; 0x210e <SramHZ16Set+0xee>
    20fe:	1b ba       	out	0x1b, r1	; 27
    2100:	96 98       	cbi	0x12, 6	; 18
    2102:	96 9a       	sbi	0x12, 6	; 18
    2104:	96 98       	cbi	0x12, 6	; 18
    2106:	96 9a       	sbi	0x12, 6	; 18
    2108:	96 98       	cbi	0x12, 6	; 18
    210a:	96 9a       	sbi	0x12, 6	; 18
    210c:	15 c0       	rjmp	.+42     	; 0x2138 <SramHZ16Set+0x118>
    210e:	9b ba       	out	0x1b, r9	; 27
    2110:	96 98       	cbi	0x12, 6	; 18
    2112:	96 9a       	sbi	0x12, 6	; 18
    2114:	db ba       	out	0x1b, r13	; 27
    2116:	96 98       	cbi	0x12, 6	; 18
    2118:	96 9a       	sbi	0x12, 6	; 18
    211a:	8b ba       	out	0x1b, r8	; 27
    211c:	96 98       	cbi	0x12, 6	; 18
    211e:	96 9a       	sbi	0x12, 6	; 18
    2120:	db ba       	out	0x1b, r13	; 27
    2122:	0a c0       	rjmp	.+20     	; 0x2138 <SramHZ16Set+0x118>
    2124:	bb ba       	out	0x1b, r11	; 27
    2126:	96 98       	cbi	0x12, 6	; 18
    2128:	96 9a       	sbi	0x12, 6	; 18
    212a:	cb ba       	out	0x1b, r12	; 27
    212c:	96 98       	cbi	0x12, 6	; 18
    212e:	96 9a       	sbi	0x12, 6	; 18
    2130:	ab ba       	out	0x1b, r10	; 27
    2132:	96 98       	cbi	0x12, 6	; 18
    2134:	96 9a       	sbi	0x12, 6	; 18
    2136:	cb ba       	out	0x1b, r12	; 27
    2138:	96 98       	cbi	0x12, 6	; 18
    213a:	96 9a       	sbi	0x12, 6	; 18
    213c:	91 50       	subi	r25, 0x01	; 1
    213e:	19 f0       	breq	.+6      	; 0x2146 <SramHZ16Set+0x126>
    2140:	44 0f       	add	r20, r20
    2142:	33 0f       	add	r19, r19
    2144:	d8 cf       	rjmp	.-80     	; 0x20f6 <SramHZ16Set+0xd6>
    2146:	8e 5f       	subi	r24, 0xFE	; 254
    2148:	84 32       	cpi	r24, 0x24	; 36
    214a:	70 f2       	brcs	.-100    	; 0x20e8 <SramHZ16Set+0xc8>
    214c:	2f 5f       	subi	r18, 0xFF	; 255
    214e:	80 e2       	ldi	r24, 0x20	; 32
    2150:	90 e0       	ldi	r25, 0x00	; 0
    2152:	a0 e0       	ldi	r26, 0x00	; 0
    2154:	b0 e0       	ldi	r27, 0x00	; 0
    2156:	e8 0e       	add	r14, r24
    2158:	f9 1e       	adc	r15, r25
    215a:	0a 1f       	adc	r16, r26
    215c:	1b 1f       	adc	r17, r27
    215e:	22 30       	cpi	r18, 0x02	; 2
    2160:	09 f0       	breq	.+2      	; 0x2164 <SramHZ16Set+0x144>
    2162:	bb cf       	rjmp	.-138    	; 0x20da <SramHZ16Set+0xba>
    2164:	95 9a       	sbi	0x12, 5	; 18
    2166:	0f 90       	pop	r0
    2168:	cf 91       	pop	r28
    216a:	df 91       	pop	r29
    216c:	1f 91       	pop	r17
    216e:	0f 91       	pop	r16
    2170:	ff 90       	pop	r15
    2172:	ef 90       	pop	r14
    2174:	df 90       	pop	r13
    2176:	cf 90       	pop	r12
    2178:	bf 90       	pop	r11
    217a:	af 90       	pop	r10
    217c:	9f 90       	pop	r9
    217e:	8f 90       	pop	r8
    2180:	08 95       	ret

00002182 <SramHZ24Set>:
    2182:	8f 92       	push	r8
    2184:	9f 92       	push	r9
    2186:	af 92       	push	r10
    2188:	bf 92       	push	r11
    218a:	cf 92       	push	r12
    218c:	df 92       	push	r13
    218e:	ef 92       	push	r14
    2190:	ff 92       	push	r15
    2192:	0f 93       	push	r16
    2194:	1f 93       	push	r17
    2196:	df 93       	push	r29
    2198:	cf 93       	push	r28
    219a:	0f 92       	push	r0
    219c:	cd b7       	in	r28, 0x3d	; 61
    219e:	de b7       	in	r29, 0x3e	; 62
    21a0:	22 0f       	add	r18, r18
    21a2:	22 0f       	add	r18, r18
    21a4:	44 0f       	add	r20, r20
    21a6:	44 0f       	add	r20, r20
    21a8:	e2 2f       	mov	r30, r18
    21aa:	f0 e0       	ldi	r31, 0x00	; 0
    21ac:	ef 54       	subi	r30, 0x4F	; 79
    21ae:	ff 4f       	sbci	r31, 0xFF	; 255
    21b0:	c0 80       	ld	r12, Z
    21b2:	2f 5f       	subi	r18, 0xFF	; 255
    21b4:	e2 2f       	mov	r30, r18
    21b6:	f0 e0       	ldi	r31, 0x00	; 0
    21b8:	ef 54       	subi	r30, 0x4F	; 79
    21ba:	ff 4f       	sbci	r31, 0xFF	; 255
    21bc:	b0 80       	ld	r11, Z
    21be:	2f 5f       	subi	r18, 0xFF	; 255
    21c0:	a2 2f       	mov	r26, r18
    21c2:	b0 e0       	ldi	r27, 0x00	; 0
    21c4:	af 54       	subi	r26, 0x4F	; 79
    21c6:	bf 4f       	sbci	r27, 0xFF	; 255
    21c8:	ac 90       	ld	r10, X
    21ca:	a4 2f       	mov	r26, r20
    21cc:	b0 e0       	ldi	r27, 0x00	; 0
    21ce:	af 54       	subi	r26, 0x4F	; 79
    21d0:	bf 4f       	sbci	r27, 0xFF	; 255
    21d2:	dc 90       	ld	r13, X
    21d4:	4f 5f       	subi	r20, 0xFF	; 255
    21d6:	a4 2f       	mov	r26, r20
    21d8:	b0 e0       	ldi	r27, 0x00	; 0
    21da:	af 54       	subi	r26, 0x4F	; 79
    21dc:	bf 4f       	sbci	r27, 0xFF	; 255
    21de:	9c 90       	ld	r9, X
    21e0:	4f 5f       	subi	r20, 0xFF	; 255
    21e2:	e4 2f       	mov	r30, r20
    21e4:	f0 e0       	ldi	r31, 0x00	; 0
    21e6:	ef 54       	subi	r30, 0x4F	; 79
    21e8:	ff 4f       	sbci	r31, 0xFF	; 255
    21ea:	80 80       	ld	r8, Z
    21ec:	74 e0       	ldi	r23, 0x04	; 4
    21ee:	00 0f       	add	r16, r16
    21f0:	11 1f       	adc	r17, r17
    21f2:	7a 95       	dec	r23
    21f4:	e1 f7       	brne	.-8      	; 0x21ee <SramHZ24Set+0x6c>
    21f6:	78 01       	movw	r14, r16
    21f8:	00 e0       	ldi	r16, 0x00	; 0
    21fa:	10 e0       	ldi	r17, 0x00	; 0
    21fc:	20 91 a4 07 	lds	r18, 0x07A4
    2200:	30 91 a5 07 	lds	r19, 0x07A5
    2204:	40 91 a6 07 	lds	r20, 0x07A6
    2208:	50 91 a7 07 	lds	r21, 0x07A7
    220c:	e2 0e       	add	r14, r18
    220e:	f3 1e       	adc	r15, r19
    2210:	04 1f       	adc	r16, r20
    2212:	15 1f       	adc	r17, r21
    2214:	9e e5       	ldi	r25, 0x5E	; 94
    2216:	89 9f       	mul	r24, r25
    2218:	c0 01       	movw	r24, r0
    221a:	11 24       	eor	r1, r1
    221c:	86 0f       	add	r24, r22
    221e:	91 1d       	adc	r25, r1
    2220:	81 56       	subi	r24, 0x61	; 97
    2222:	9b 43       	sbci	r25, 0x3B	; 59
    2224:	9c 01       	movw	r18, r24
    2226:	b9 01       	movw	r22, r18
    2228:	88 27       	eor	r24, r24
    222a:	77 fd       	sbrc	r23, 7
    222c:	80 95       	com	r24
    222e:	98 2f       	mov	r25, r24
    2230:	60 5f       	subi	r22, 0xF0	; 240
    2232:	78 4d       	sbci	r23, 0xD8	; 216
    2234:	8f 4f       	sbci	r24, 0xFF	; 255
    2236:	9f 4f       	sbci	r25, 0xFF	; 255
    2238:	43 ea       	ldi	r20, 0xA3	; 163
    223a:	56 e0       	ldi	r21, 0x06	; 6
    223c:	24 ee       	ldi	r18, 0xE4	; 228
    223e:	0e 94 ce 04 	call	0x99c	; 0x99c <ExtFlashPageDataRead>
    2242:	20 e0       	ldi	r18, 0x00	; 0
    2244:	c8 01       	movw	r24, r16
    2246:	b7 01       	movw	r22, r14
    2248:	29 83       	std	Y+1, r18	; 0x01
    224a:	0e 94 d9 0e 	call	0x1db2	; 0x1db2 <SramAddrSet>
    224e:	29 81       	ldd	r18, Y+1	; 0x01
    2250:	82 2f       	mov	r24, r18
    2252:	e8 2f       	mov	r30, r24
    2254:	f0 e0       	ldi	r31, 0x00	; 0
    2256:	ed 55       	subi	r30, 0x5D	; 93
    2258:	f9 4f       	sbci	r31, 0xF9	; 249
    225a:	40 81       	ld	r20, Z
    225c:	e2 5b       	subi	r30, 0xB2	; 178
    225e:	ff 4f       	sbci	r31, 0xFF	; 255
    2260:	30 81       	ld	r19, Z
    2262:	98 e0       	ldi	r25, 0x08	; 8
    2264:	47 fd       	sbrc	r20, 7
    2266:	15 c0       	rjmp	.+42     	; 0x2292 <SramHZ24Set+0x110>
    2268:	37 fd       	sbrc	r19, 7
    226a:	08 c0       	rjmp	.+16     	; 0x227c <SramHZ24Set+0xfa>
    226c:	1b ba       	out	0x1b, r1	; 27
    226e:	96 98       	cbi	0x12, 6	; 18
    2270:	96 9a       	sbi	0x12, 6	; 18
    2272:	96 98       	cbi	0x12, 6	; 18
    2274:	96 9a       	sbi	0x12, 6	; 18
    2276:	96 98       	cbi	0x12, 6	; 18
    2278:	96 9a       	sbi	0x12, 6	; 18
    227a:	15 c0       	rjmp	.+42     	; 0x22a6 <SramHZ24Set+0x124>
    227c:	9b ba       	out	0x1b, r9	; 27
    227e:	96 98       	cbi	0x12, 6	; 18
    2280:	96 9a       	sbi	0x12, 6	; 18
    2282:	db ba       	out	0x1b, r13	; 27
    2284:	96 98       	cbi	0x12, 6	; 18
    2286:	96 9a       	sbi	0x12, 6	; 18
    2288:	8b ba       	out	0x1b, r8	; 27
    228a:	96 98       	cbi	0x12, 6	; 18
    228c:	96 9a       	sbi	0x12, 6	; 18
    228e:	db ba       	out	0x1b, r13	; 27
    2290:	0a c0       	rjmp	.+20     	; 0x22a6 <SramHZ24Set+0x124>
    2292:	bb ba       	out	0x1b, r11	; 27
    2294:	96 98       	cbi	0x12, 6	; 18
    2296:	96 9a       	sbi	0x12, 6	; 18
    2298:	cb ba       	out	0x1b, r12	; 27
    229a:	96 98       	cbi	0x12, 6	; 18
    229c:	96 9a       	sbi	0x12, 6	; 18
    229e:	ab ba       	out	0x1b, r10	; 27
    22a0:	96 98       	cbi	0x12, 6	; 18
    22a2:	96 9a       	sbi	0x12, 6	; 18
    22a4:	cb ba       	out	0x1b, r12	; 27
    22a6:	96 98       	cbi	0x12, 6	; 18
    22a8:	96 9a       	sbi	0x12, 6	; 18
    22aa:	91 50       	subi	r25, 0x01	; 1
    22ac:	19 f0       	breq	.+6      	; 0x22b4 <SramHZ24Set+0x132>
    22ae:	44 0f       	add	r20, r20
    22b0:	33 0f       	add	r19, r19
    22b2:	d8 cf       	rjmp	.-80     	; 0x2264 <SramHZ24Set+0xe2>
    22b4:	8d 5f       	subi	r24, 0xFD	; 253
    22b6:	8e 34       	cpi	r24, 0x4E	; 78
    22b8:	60 f2       	brcs	.-104    	; 0x2252 <SramHZ24Set+0xd0>
    22ba:	2f 5f       	subi	r18, 0xFF	; 255
    22bc:	80 e2       	ldi	r24, 0x20	; 32
    22be:	90 e0       	ldi	r25, 0x00	; 0
    22c0:	a0 e0       	ldi	r26, 0x00	; 0
    22c2:	b0 e0       	ldi	r27, 0x00	; 0
    22c4:	e8 0e       	add	r14, r24
    22c6:	f9 1e       	adc	r15, r25
    22c8:	0a 1f       	adc	r16, r26
    22ca:	1b 1f       	adc	r17, r27
    22cc:	23 30       	cpi	r18, 0x03	; 3
    22ce:	09 f0       	breq	.+2      	; 0x22d2 <SramHZ24Set+0x150>
    22d0:	b9 cf       	rjmp	.-142    	; 0x2244 <SramHZ24Set+0xc2>
    22d2:	95 9a       	sbi	0x12, 5	; 18
    22d4:	0f 90       	pop	r0
    22d6:	cf 91       	pop	r28
    22d8:	df 91       	pop	r29
    22da:	1f 91       	pop	r17
    22dc:	0f 91       	pop	r16
    22de:	ff 90       	pop	r15
    22e0:	ef 90       	pop	r14
    22e2:	df 90       	pop	r13
    22e4:	cf 90       	pop	r12
    22e6:	bf 90       	pop	r11
    22e8:	af 90       	pop	r10
    22ea:	9f 90       	pop	r9
    22ec:	8f 90       	pop	r8
    22ee:	08 95       	ret

000022f0 <SramHZ16SetWithoutBorder>:
    22f0:	8f 92       	push	r8
    22f2:	9f 92       	push	r9
    22f4:	af 92       	push	r10
    22f6:	bf 92       	push	r11
    22f8:	cf 92       	push	r12
    22fa:	df 92       	push	r13
    22fc:	ef 92       	push	r14
    22fe:	ff 92       	push	r15
    2300:	0f 93       	push	r16
    2302:	1f 93       	push	r17
    2304:	df 93       	push	r29
    2306:	cf 93       	push	r28
    2308:	0f 92       	push	r0
    230a:	cd b7       	in	r28, 0x3d	; 61
    230c:	de b7       	in	r29, 0x3e	; 62
    230e:	22 0f       	add	r18, r18
    2310:	22 0f       	add	r18, r18
    2312:	44 0f       	add	r20, r20
    2314:	44 0f       	add	r20, r20
    2316:	e2 2f       	mov	r30, r18
    2318:	f0 e0       	ldi	r31, 0x00	; 0
    231a:	ef 54       	subi	r30, 0x4F	; 79
    231c:	ff 4f       	sbci	r31, 0xFF	; 255
    231e:	c0 80       	ld	r12, Z
    2320:	2f 5f       	subi	r18, 0xFF	; 255
    2322:	e2 2f       	mov	r30, r18
    2324:	f0 e0       	ldi	r31, 0x00	; 0
    2326:	ef 54       	subi	r30, 0x4F	; 79
    2328:	ff 4f       	sbci	r31, 0xFF	; 255
    232a:	b0 80       	ld	r11, Z
    232c:	2f 5f       	subi	r18, 0xFF	; 255
    232e:	a2 2f       	mov	r26, r18
    2330:	b0 e0       	ldi	r27, 0x00	; 0
    2332:	af 54       	subi	r26, 0x4F	; 79
    2334:	bf 4f       	sbci	r27, 0xFF	; 255
    2336:	ac 90       	ld	r10, X
    2338:	a4 2f       	mov	r26, r20
    233a:	b0 e0       	ldi	r27, 0x00	; 0
    233c:	af 54       	subi	r26, 0x4F	; 79
    233e:	bf 4f       	sbci	r27, 0xFF	; 255
    2340:	dc 90       	ld	r13, X
    2342:	4f 5f       	subi	r20, 0xFF	; 255
    2344:	a4 2f       	mov	r26, r20
    2346:	b0 e0       	ldi	r27, 0x00	; 0
    2348:	af 54       	subi	r26, 0x4F	; 79
    234a:	bf 4f       	sbci	r27, 0xFF	; 255
    234c:	9c 90       	ld	r9, X
    234e:	4f 5f       	subi	r20, 0xFF	; 255
    2350:	e4 2f       	mov	r30, r20
    2352:	f0 e0       	ldi	r31, 0x00	; 0
    2354:	ef 54       	subi	r30, 0x4F	; 79
    2356:	ff 4f       	sbci	r31, 0xFF	; 255
    2358:	80 80       	ld	r8, Z
    235a:	e4 e0       	ldi	r30, 0x04	; 4
    235c:	00 0f       	add	r16, r16
    235e:	11 1f       	adc	r17, r17
    2360:	ea 95       	dec	r30
    2362:	e1 f7       	brne	.-8      	; 0x235c <SramHZ16SetWithoutBorder+0x6c>
    2364:	78 01       	movw	r14, r16
    2366:	00 e0       	ldi	r16, 0x00	; 0
    2368:	10 e0       	ldi	r17, 0x00	; 0
    236a:	20 91 a4 07 	lds	r18, 0x07A4
    236e:	30 91 a5 07 	lds	r19, 0x07A5
    2372:	40 91 a6 07 	lds	r20, 0x07A6
    2376:	50 91 a7 07 	lds	r21, 0x07A7
    237a:	e2 0e       	add	r14, r18
    237c:	f3 1e       	adc	r15, r19
    237e:	04 1f       	adc	r16, r20
    2380:	15 1f       	adc	r17, r21
    2382:	9e e5       	ldi	r25, 0x5E	; 94
    2384:	89 9f       	mul	r24, r25
    2386:	c0 01       	movw	r24, r0
    2388:	11 24       	eor	r1, r1
    238a:	86 0f       	add	r24, r22
    238c:	91 1d       	adc	r25, r1
    238e:	8f 5b       	subi	r24, 0xBF	; 191
    2390:	9b 43       	sbci	r25, 0x3B	; 59
    2392:	9c 01       	movw	r18, r24
    2394:	b9 01       	movw	r22, r18
    2396:	88 27       	eor	r24, r24
    2398:	77 fd       	sbrc	r23, 7
    239a:	80 95       	com	r24
    239c:	98 2f       	mov	r25, r24
    239e:	43 ea       	ldi	r20, 0xA3	; 163
    23a0:	56 e0       	ldi	r21, 0x06	; 6
    23a2:	24 ee       	ldi	r18, 0xE4	; 228
    23a4:	0e 94 ce 04 	call	0x99c	; 0x99c <ExtFlashPageDataRead>
    23a8:	20 e0       	ldi	r18, 0x00	; 0
    23aa:	c8 01       	movw	r24, r16
    23ac:	b7 01       	movw	r22, r14
    23ae:	29 83       	std	Y+1, r18	; 0x01
    23b0:	0e 94 d9 0e 	call	0x1db2	; 0x1db2 <SramAddrSet>
    23b4:	29 81       	ldd	r18, Y+1	; 0x01
    23b6:	82 2f       	mov	r24, r18
    23b8:	e8 2f       	mov	r30, r24
    23ba:	f0 e0       	ldi	r31, 0x00	; 0
    23bc:	ed 55       	subi	r30, 0x5D	; 93
    23be:	f9 4f       	sbci	r31, 0xF9	; 249
    23c0:	30 81       	ld	r19, Z
    23c2:	98 e0       	ldi	r25, 0x08	; 8
    23c4:	37 fd       	sbrc	r19, 7
    23c6:	0b c0       	rjmp	.+22     	; 0x23de <SramHZ16SetWithoutBorder+0xee>
    23c8:	9b ba       	out	0x1b, r9	; 27
    23ca:	96 98       	cbi	0x12, 6	; 18
    23cc:	96 9a       	sbi	0x12, 6	; 18
    23ce:	db ba       	out	0x1b, r13	; 27
    23d0:	96 98       	cbi	0x12, 6	; 18
    23d2:	96 9a       	sbi	0x12, 6	; 18
    23d4:	8b ba       	out	0x1b, r8	; 27
    23d6:	96 98       	cbi	0x12, 6	; 18
    23d8:	96 9a       	sbi	0x12, 6	; 18
    23da:	db ba       	out	0x1b, r13	; 27
    23dc:	0a c0       	rjmp	.+20     	; 0x23f2 <SramHZ16SetWithoutBorder+0x102>
    23de:	bb ba       	out	0x1b, r11	; 27
    23e0:	96 98       	cbi	0x12, 6	; 18
    23e2:	96 9a       	sbi	0x12, 6	; 18
    23e4:	cb ba       	out	0x1b, r12	; 27
    23e6:	96 98       	cbi	0x12, 6	; 18
    23e8:	96 9a       	sbi	0x12, 6	; 18
    23ea:	ab ba       	out	0x1b, r10	; 27
    23ec:	96 98       	cbi	0x12, 6	; 18
    23ee:	96 9a       	sbi	0x12, 6	; 18
    23f0:	cb ba       	out	0x1b, r12	; 27
    23f2:	96 98       	cbi	0x12, 6	; 18
    23f4:	96 9a       	sbi	0x12, 6	; 18
    23f6:	91 50       	subi	r25, 0x01	; 1
    23f8:	11 f0       	breq	.+4      	; 0x23fe <SramHZ16SetWithoutBorder+0x10e>
    23fa:	33 0f       	add	r19, r19
    23fc:	e3 cf       	rjmp	.-58     	; 0x23c4 <SramHZ16SetWithoutBorder+0xd4>
    23fe:	8e 5f       	subi	r24, 0xFE	; 254
    2400:	84 32       	cpi	r24, 0x24	; 36
    2402:	d0 f2       	brcs	.-76     	; 0x23b8 <SramHZ16SetWithoutBorder+0xc8>
    2404:	2f 5f       	subi	r18, 0xFF	; 255
    2406:	80 e2       	ldi	r24, 0x20	; 32
    2408:	90 e0       	ldi	r25, 0x00	; 0
    240a:	a0 e0       	ldi	r26, 0x00	; 0
    240c:	b0 e0       	ldi	r27, 0x00	; 0
    240e:	e8 0e       	add	r14, r24
    2410:	f9 1e       	adc	r15, r25
    2412:	0a 1f       	adc	r16, r26
    2414:	1b 1f       	adc	r17, r27
    2416:	22 30       	cpi	r18, 0x02	; 2
    2418:	41 f6       	brne	.-112    	; 0x23aa <SramHZ16SetWithoutBorder+0xba>
    241a:	95 9a       	sbi	0x12, 5	; 18
    241c:	0f 90       	pop	r0
    241e:	cf 91       	pop	r28
    2420:	df 91       	pop	r29
    2422:	1f 91       	pop	r17
    2424:	0f 91       	pop	r16
    2426:	ff 90       	pop	r15
    2428:	ef 90       	pop	r14
    242a:	df 90       	pop	r13
    242c:	cf 90       	pop	r12
    242e:	bf 90       	pop	r11
    2430:	af 90       	pop	r10
    2432:	9f 90       	pop	r9
    2434:	8f 90       	pop	r8
    2436:	08 95       	ret

00002438 <SramHZ24SetWithoutBorder>:
    2438:	8f 92       	push	r8
    243a:	9f 92       	push	r9
    243c:	af 92       	push	r10
    243e:	bf 92       	push	r11
    2440:	cf 92       	push	r12
    2442:	df 92       	push	r13
    2444:	ef 92       	push	r14
    2446:	ff 92       	push	r15
    2448:	0f 93       	push	r16
    244a:	1f 93       	push	r17
    244c:	df 93       	push	r29
    244e:	cf 93       	push	r28
    2450:	0f 92       	push	r0
    2452:	cd b7       	in	r28, 0x3d	; 61
    2454:	de b7       	in	r29, 0x3e	; 62
    2456:	22 0f       	add	r18, r18
    2458:	22 0f       	add	r18, r18
    245a:	44 0f       	add	r20, r20
    245c:	44 0f       	add	r20, r20
    245e:	e2 2f       	mov	r30, r18
    2460:	f0 e0       	ldi	r31, 0x00	; 0
    2462:	ef 54       	subi	r30, 0x4F	; 79
    2464:	ff 4f       	sbci	r31, 0xFF	; 255
    2466:	c0 80       	ld	r12, Z
    2468:	2f 5f       	subi	r18, 0xFF	; 255
    246a:	e2 2f       	mov	r30, r18
    246c:	f0 e0       	ldi	r31, 0x00	; 0
    246e:	ef 54       	subi	r30, 0x4F	; 79
    2470:	ff 4f       	sbci	r31, 0xFF	; 255
    2472:	b0 80       	ld	r11, Z
    2474:	2f 5f       	subi	r18, 0xFF	; 255
    2476:	a2 2f       	mov	r26, r18
    2478:	b0 e0       	ldi	r27, 0x00	; 0
    247a:	af 54       	subi	r26, 0x4F	; 79
    247c:	bf 4f       	sbci	r27, 0xFF	; 255
    247e:	ac 90       	ld	r10, X
    2480:	a4 2f       	mov	r26, r20
    2482:	b0 e0       	ldi	r27, 0x00	; 0
    2484:	af 54       	subi	r26, 0x4F	; 79
    2486:	bf 4f       	sbci	r27, 0xFF	; 255
    2488:	dc 90       	ld	r13, X
    248a:	4f 5f       	subi	r20, 0xFF	; 255
    248c:	a4 2f       	mov	r26, r20
    248e:	b0 e0       	ldi	r27, 0x00	; 0
    2490:	af 54       	subi	r26, 0x4F	; 79
    2492:	bf 4f       	sbci	r27, 0xFF	; 255
    2494:	9c 90       	ld	r9, X
    2496:	4f 5f       	subi	r20, 0xFF	; 255
    2498:	e4 2f       	mov	r30, r20
    249a:	f0 e0       	ldi	r31, 0x00	; 0
    249c:	ef 54       	subi	r30, 0x4F	; 79
    249e:	ff 4f       	sbci	r31, 0xFF	; 255
    24a0:	80 80       	ld	r8, Z
    24a2:	f4 e0       	ldi	r31, 0x04	; 4
    24a4:	00 0f       	add	r16, r16
    24a6:	11 1f       	adc	r17, r17
    24a8:	fa 95       	dec	r31
    24aa:	e1 f7       	brne	.-8      	; 0x24a4 <SramHZ24SetWithoutBorder+0x6c>
    24ac:	78 01       	movw	r14, r16
    24ae:	00 e0       	ldi	r16, 0x00	; 0
    24b0:	10 e0       	ldi	r17, 0x00	; 0
    24b2:	20 91 a4 07 	lds	r18, 0x07A4
    24b6:	30 91 a5 07 	lds	r19, 0x07A5
    24ba:	40 91 a6 07 	lds	r20, 0x07A6
    24be:	50 91 a7 07 	lds	r21, 0x07A7
    24c2:	e2 0e       	add	r14, r18
    24c4:	f3 1e       	adc	r15, r19
    24c6:	04 1f       	adc	r16, r20
    24c8:	15 1f       	adc	r17, r21
    24ca:	9e e5       	ldi	r25, 0x5E	; 94
    24cc:	89 9f       	mul	r24, r25
    24ce:	c0 01       	movw	r24, r0
    24d0:	11 24       	eor	r1, r1
    24d2:	86 0f       	add	r24, r22
    24d4:	91 1d       	adc	r25, r1
    24d6:	81 56       	subi	r24, 0x61	; 97
    24d8:	9b 43       	sbci	r25, 0x3B	; 59
    24da:	9c 01       	movw	r18, r24
    24dc:	b9 01       	movw	r22, r18
    24de:	88 27       	eor	r24, r24
    24e0:	77 fd       	sbrc	r23, 7
    24e2:	80 95       	com	r24
    24e4:	98 2f       	mov	r25, r24
    24e6:	60 5f       	subi	r22, 0xF0	; 240
    24e8:	78 4d       	sbci	r23, 0xD8	; 216
    24ea:	8f 4f       	sbci	r24, 0xFF	; 255
    24ec:	9f 4f       	sbci	r25, 0xFF	; 255
    24ee:	43 ea       	ldi	r20, 0xA3	; 163
    24f0:	56 e0       	ldi	r21, 0x06	; 6
    24f2:	24 ee       	ldi	r18, 0xE4	; 228
    24f4:	0e 94 ce 04 	call	0x99c	; 0x99c <ExtFlashPageDataRead>
    24f8:	20 e0       	ldi	r18, 0x00	; 0
    24fa:	c8 01       	movw	r24, r16
    24fc:	b7 01       	movw	r22, r14
    24fe:	29 83       	std	Y+1, r18	; 0x01
    2500:	0e 94 d9 0e 	call	0x1db2	; 0x1db2 <SramAddrSet>
    2504:	29 81       	ldd	r18, Y+1	; 0x01
    2506:	82 2f       	mov	r24, r18
    2508:	e8 2f       	mov	r30, r24
    250a:	f0 e0       	ldi	r31, 0x00	; 0
    250c:	ed 55       	subi	r30, 0x5D	; 93
    250e:	f9 4f       	sbci	r31, 0xF9	; 249
    2510:	30 81       	ld	r19, Z
    2512:	98 e0       	ldi	r25, 0x08	; 8
    2514:	37 fd       	sbrc	r19, 7
    2516:	0b c0       	rjmp	.+22     	; 0x252e <SramHZ24SetWithoutBorder+0xf6>
    2518:	9b ba       	out	0x1b, r9	; 27
    251a:	96 98       	cbi	0x12, 6	; 18
    251c:	96 9a       	sbi	0x12, 6	; 18
    251e:	db ba       	out	0x1b, r13	; 27
    2520:	96 98       	cbi	0x12, 6	; 18
    2522:	96 9a       	sbi	0x12, 6	; 18
    2524:	8b ba       	out	0x1b, r8	; 27
    2526:	96 98       	cbi	0x12, 6	; 18
    2528:	96 9a       	sbi	0x12, 6	; 18
    252a:	db ba       	out	0x1b, r13	; 27
    252c:	0a c0       	rjmp	.+20     	; 0x2542 <SramHZ24SetWithoutBorder+0x10a>
    252e:	bb ba       	out	0x1b, r11	; 27
    2530:	96 98       	cbi	0x12, 6	; 18
    2532:	96 9a       	sbi	0x12, 6	; 18
    2534:	cb ba       	out	0x1b, r12	; 27
    2536:	96 98       	cbi	0x12, 6	; 18
    2538:	96 9a       	sbi	0x12, 6	; 18
    253a:	ab ba       	out	0x1b, r10	; 27
    253c:	96 98       	cbi	0x12, 6	; 18
    253e:	96 9a       	sbi	0x12, 6	; 18
    2540:	cb ba       	out	0x1b, r12	; 27
    2542:	96 98       	cbi	0x12, 6	; 18
    2544:	96 9a       	sbi	0x12, 6	; 18
    2546:	91 50       	subi	r25, 0x01	; 1
    2548:	11 f0       	breq	.+4      	; 0x254e <SramHZ24SetWithoutBorder+0x116>
    254a:	33 0f       	add	r19, r19
    254c:	e3 cf       	rjmp	.-58     	; 0x2514 <SramHZ24SetWithoutBorder+0xdc>
    254e:	8d 5f       	subi	r24, 0xFD	; 253
    2550:	8e 34       	cpi	r24, 0x4E	; 78
    2552:	d0 f2       	brcs	.-76     	; 0x2508 <SramHZ24SetWithoutBorder+0xd0>
    2554:	2f 5f       	subi	r18, 0xFF	; 255
    2556:	80 e2       	ldi	r24, 0x20	; 32
    2558:	90 e0       	ldi	r25, 0x00	; 0
    255a:	a0 e0       	ldi	r26, 0x00	; 0
    255c:	b0 e0       	ldi	r27, 0x00	; 0
    255e:	e8 0e       	add	r14, r24
    2560:	f9 1e       	adc	r15, r25
    2562:	0a 1f       	adc	r16, r26
    2564:	1b 1f       	adc	r17, r27
    2566:	23 30       	cpi	r18, 0x03	; 3
    2568:	41 f6       	brne	.-112    	; 0x24fa <SramHZ24SetWithoutBorder+0xc2>
    256a:	95 9a       	sbi	0x12, 5	; 18
    256c:	0f 90       	pop	r0
    256e:	cf 91       	pop	r28
    2570:	df 91       	pop	r29
    2572:	1f 91       	pop	r17
    2574:	0f 91       	pop	r16
    2576:	ff 90       	pop	r15
    2578:	ef 90       	pop	r14
    257a:	df 90       	pop	r13
    257c:	cf 90       	pop	r12
    257e:	bf 90       	pop	r11
    2580:	af 90       	pop	r10
    2582:	9f 90       	pop	r9
    2584:	8f 90       	pop	r8
    2586:	08 95       	ret

00002588 <sramASC16Set>:
    2588:	8f 92       	push	r8
    258a:	9f 92       	push	r9
    258c:	af 92       	push	r10
    258e:	bf 92       	push	r11
    2590:	cf 92       	push	r12
    2592:	df 92       	push	r13
    2594:	ef 92       	push	r14
    2596:	ff 92       	push	r15
    2598:	0f 93       	push	r16
    259a:	1f 93       	push	r17
    259c:	cf 93       	push	r28
    259e:	df 93       	push	r29
    25a0:	44 0f       	add	r20, r20
    25a2:	44 0f       	add	r20, r20
    25a4:	66 0f       	add	r22, r22
    25a6:	66 0f       	add	r22, r22
    25a8:	c4 2f       	mov	r28, r20
    25aa:	d0 e0       	ldi	r29, 0x00	; 0
    25ac:	cf 54       	subi	r28, 0x4F	; 79
    25ae:	df 4f       	sbci	r29, 0xFF	; 255
    25b0:	c8 80       	ld	r12, Y
    25b2:	4f 5f       	subi	r20, 0xFF	; 255
    25b4:	c4 2f       	mov	r28, r20
    25b6:	d0 e0       	ldi	r29, 0x00	; 0
    25b8:	cf 54       	subi	r28, 0x4F	; 79
    25ba:	df 4f       	sbci	r29, 0xFF	; 255
    25bc:	b8 80       	ld	r11, Y
    25be:	4f 5f       	subi	r20, 0xFF	; 255
    25c0:	a4 2f       	mov	r26, r20
    25c2:	b0 e0       	ldi	r27, 0x00	; 0
    25c4:	af 54       	subi	r26, 0x4F	; 79
    25c6:	bf 4f       	sbci	r27, 0xFF	; 255
    25c8:	ac 90       	ld	r10, X
    25ca:	a6 2f       	mov	r26, r22
    25cc:	b0 e0       	ldi	r27, 0x00	; 0
    25ce:	af 54       	subi	r26, 0x4F	; 79
    25d0:	bf 4f       	sbci	r27, 0xFF	; 255
    25d2:	dc 90       	ld	r13, X
    25d4:	6f 5f       	subi	r22, 0xFF	; 255
    25d6:	a6 2f       	mov	r26, r22
    25d8:	b0 e0       	ldi	r27, 0x00	; 0
    25da:	af 54       	subi	r26, 0x4F	; 79
    25dc:	bf 4f       	sbci	r27, 0xFF	; 255
    25de:	9c 90       	ld	r9, X
    25e0:	6f 5f       	subi	r22, 0xFF	; 255
    25e2:	e6 2f       	mov	r30, r22
    25e4:	f0 e0       	ldi	r31, 0x00	; 0
    25e6:	ef 54       	subi	r30, 0x4F	; 79
    25e8:	ff 4f       	sbci	r31, 0xFF	; 255
    25ea:	80 80       	ld	r8, Z
    25ec:	a4 e0       	ldi	r26, 0x04	; 4
    25ee:	22 0f       	add	r18, r18
    25f0:	33 1f       	adc	r19, r19
    25f2:	aa 95       	dec	r26
    25f4:	e1 f7       	brne	.-8      	; 0x25ee <sramASC16Set+0x66>
    25f6:	79 01       	movw	r14, r18
    25f8:	00 e0       	ldi	r16, 0x00	; 0
    25fa:	10 e0       	ldi	r17, 0x00	; 0
    25fc:	20 91 a4 07 	lds	r18, 0x07A4
    2600:	30 91 a5 07 	lds	r19, 0x07A5
    2604:	40 91 a6 07 	lds	r20, 0x07A6
    2608:	50 91 a7 07 	lds	r21, 0x07A7
    260c:	e2 0e       	add	r14, r18
    260e:	f3 1e       	adc	r15, r19
    2610:	04 1f       	adc	r16, r20
    2612:	15 1f       	adc	r17, r21
    2614:	bc 01       	movw	r22, r24
    2616:	61 52       	subi	r22, 0x21	; 33
    2618:	70 40       	sbci	r23, 0x00	; 0
    261a:	80 e0       	ldi	r24, 0x00	; 0
    261c:	90 e0       	ldi	r25, 0x00	; 0
    261e:	60 53       	subi	r22, 0x30	; 48
    2620:	7f 4d       	sbci	r23, 0xDF	; 223
    2622:	8f 4f       	sbci	r24, 0xFF	; 255
    2624:	9f 4f       	sbci	r25, 0xFF	; 255
    2626:	43 ea       	ldi	r20, 0xA3	; 163
    2628:	56 e0       	ldi	r21, 0x06	; 6
    262a:	28 e2       	ldi	r18, 0x28	; 40
    262c:	0e 94 ce 04 	call	0x99c	; 0x99c <ExtFlashPageDataRead>
    2630:	c8 01       	movw	r24, r16
    2632:	b7 01       	movw	r22, r14
    2634:	0e 94 d9 0e 	call	0x1db2	; 0x1db2 <SramAddrSet>
    2638:	e3 ea       	ldi	r30, 0xA3	; 163
    263a:	f6 e0       	ldi	r31, 0x06	; 6
    263c:	21 91       	ld	r18, Z+
    263e:	93 89       	ldd	r25, Z+19	; 0x13
    2640:	88 e0       	ldi	r24, 0x08	; 8
    2642:	27 fd       	sbrc	r18, 7
    2644:	15 c0       	rjmp	.+42     	; 0x2670 <sramASC16Set+0xe8>
    2646:	97 fd       	sbrc	r25, 7
    2648:	08 c0       	rjmp	.+16     	; 0x265a <sramASC16Set+0xd2>
    264a:	1b ba       	out	0x1b, r1	; 27
    264c:	96 98       	cbi	0x12, 6	; 18
    264e:	96 9a       	sbi	0x12, 6	; 18
    2650:	96 98       	cbi	0x12, 6	; 18
    2652:	96 9a       	sbi	0x12, 6	; 18
    2654:	96 98       	cbi	0x12, 6	; 18
    2656:	96 9a       	sbi	0x12, 6	; 18
    2658:	15 c0       	rjmp	.+42     	; 0x2684 <sramASC16Set+0xfc>
    265a:	9b ba       	out	0x1b, r9	; 27
    265c:	96 98       	cbi	0x12, 6	; 18
    265e:	96 9a       	sbi	0x12, 6	; 18
    2660:	db ba       	out	0x1b, r13	; 27
    2662:	96 98       	cbi	0x12, 6	; 18
    2664:	96 9a       	sbi	0x12, 6	; 18
    2666:	8b ba       	out	0x1b, r8	; 27
    2668:	96 98       	cbi	0x12, 6	; 18
    266a:	96 9a       	sbi	0x12, 6	; 18
    266c:	db ba       	out	0x1b, r13	; 27
    266e:	0a c0       	rjmp	.+20     	; 0x2684 <sramASC16Set+0xfc>
    2670:	bb ba       	out	0x1b, r11	; 27
    2672:	96 98       	cbi	0x12, 6	; 18
    2674:	96 9a       	sbi	0x12, 6	; 18
    2676:	cb ba       	out	0x1b, r12	; 27
    2678:	96 98       	cbi	0x12, 6	; 18
    267a:	96 9a       	sbi	0x12, 6	; 18
    267c:	ab ba       	out	0x1b, r10	; 27
    267e:	96 98       	cbi	0x12, 6	; 18
    2680:	96 9a       	sbi	0x12, 6	; 18
    2682:	cb ba       	out	0x1b, r12	; 27
    2684:	96 98       	cbi	0x12, 6	; 18
    2686:	96 9a       	sbi	0x12, 6	; 18
    2688:	81 50       	subi	r24, 0x01	; 1
    268a:	19 f0       	breq	.+6      	; 0x2692 <sramASC16Set+0x10a>
    268c:	22 0f       	add	r18, r18
    268e:	99 0f       	add	r25, r25
    2690:	d8 cf       	rjmp	.-80     	; 0x2642 <sramASC16Set+0xba>
    2692:	86 e0       	ldi	r24, 0x06	; 6
    2694:	e5 3b       	cpi	r30, 0xB5	; 181
    2696:	f8 07       	cpc	r31, r24
    2698:	89 f6       	brne	.-94     	; 0x263c <sramASC16Set+0xb4>
    269a:	95 9a       	sbi	0x12, 5	; 18
    269c:	df 91       	pop	r29
    269e:	cf 91       	pop	r28
    26a0:	1f 91       	pop	r17
    26a2:	0f 91       	pop	r16
    26a4:	ff 90       	pop	r15
    26a6:	ef 90       	pop	r14
    26a8:	df 90       	pop	r13
    26aa:	cf 90       	pop	r12
    26ac:	bf 90       	pop	r11
    26ae:	af 90       	pop	r10
    26b0:	9f 90       	pop	r9
    26b2:	8f 90       	pop	r8
    26b4:	08 95       	ret

000026b6 <sramASC16SetWithoutBorder>:
    26b6:	8f 92       	push	r8
    26b8:	9f 92       	push	r9
    26ba:	af 92       	push	r10
    26bc:	bf 92       	push	r11
    26be:	cf 92       	push	r12
    26c0:	df 92       	push	r13
    26c2:	ef 92       	push	r14
    26c4:	ff 92       	push	r15
    26c6:	0f 93       	push	r16
    26c8:	1f 93       	push	r17
    26ca:	cf 93       	push	r28
    26cc:	df 93       	push	r29
    26ce:	44 0f       	add	r20, r20
    26d0:	44 0f       	add	r20, r20
    26d2:	66 0f       	add	r22, r22
    26d4:	66 0f       	add	r22, r22
    26d6:	c4 2f       	mov	r28, r20
    26d8:	d0 e0       	ldi	r29, 0x00	; 0
    26da:	cf 54       	subi	r28, 0x4F	; 79
    26dc:	df 4f       	sbci	r29, 0xFF	; 255
    26de:	c8 80       	ld	r12, Y
    26e0:	4f 5f       	subi	r20, 0xFF	; 255
    26e2:	c4 2f       	mov	r28, r20
    26e4:	d0 e0       	ldi	r29, 0x00	; 0
    26e6:	cf 54       	subi	r28, 0x4F	; 79
    26e8:	df 4f       	sbci	r29, 0xFF	; 255
    26ea:	b8 80       	ld	r11, Y
    26ec:	4f 5f       	subi	r20, 0xFF	; 255
    26ee:	a4 2f       	mov	r26, r20
    26f0:	b0 e0       	ldi	r27, 0x00	; 0
    26f2:	af 54       	subi	r26, 0x4F	; 79
    26f4:	bf 4f       	sbci	r27, 0xFF	; 255
    26f6:	ac 90       	ld	r10, X
    26f8:	a6 2f       	mov	r26, r22
    26fa:	b0 e0       	ldi	r27, 0x00	; 0
    26fc:	af 54       	subi	r26, 0x4F	; 79
    26fe:	bf 4f       	sbci	r27, 0xFF	; 255
    2700:	dc 90       	ld	r13, X
    2702:	6f 5f       	subi	r22, 0xFF	; 255
    2704:	a6 2f       	mov	r26, r22
    2706:	b0 e0       	ldi	r27, 0x00	; 0
    2708:	af 54       	subi	r26, 0x4F	; 79
    270a:	bf 4f       	sbci	r27, 0xFF	; 255
    270c:	9c 90       	ld	r9, X
    270e:	6f 5f       	subi	r22, 0xFF	; 255
    2710:	e6 2f       	mov	r30, r22
    2712:	f0 e0       	ldi	r31, 0x00	; 0
    2714:	ef 54       	subi	r30, 0x4F	; 79
    2716:	ff 4f       	sbci	r31, 0xFF	; 255
    2718:	80 80       	ld	r8, Z
    271a:	b4 e0       	ldi	r27, 0x04	; 4
    271c:	22 0f       	add	r18, r18
    271e:	33 1f       	adc	r19, r19
    2720:	ba 95       	dec	r27
    2722:	e1 f7       	brne	.-8      	; 0x271c <sramASC16SetWithoutBorder+0x66>
    2724:	79 01       	movw	r14, r18
    2726:	00 e0       	ldi	r16, 0x00	; 0
    2728:	10 e0       	ldi	r17, 0x00	; 0
    272a:	20 91 a4 07 	lds	r18, 0x07A4
    272e:	30 91 a5 07 	lds	r19, 0x07A5
    2732:	40 91 a6 07 	lds	r20, 0x07A6
    2736:	50 91 a7 07 	lds	r21, 0x07A7
    273a:	e2 0e       	add	r14, r18
    273c:	f3 1e       	adc	r15, r19
    273e:	04 1f       	adc	r16, r20
    2740:	15 1f       	adc	r17, r21
    2742:	bc 01       	movw	r22, r24
    2744:	61 52       	subi	r22, 0x21	; 33
    2746:	70 40       	sbci	r23, 0x00	; 0
    2748:	80 e0       	ldi	r24, 0x00	; 0
    274a:	90 e0       	ldi	r25, 0x00	; 0
    274c:	60 53       	subi	r22, 0x30	; 48
    274e:	7f 4d       	sbci	r23, 0xDF	; 223
    2750:	8f 4f       	sbci	r24, 0xFF	; 255
    2752:	9f 4f       	sbci	r25, 0xFF	; 255
    2754:	43 ea       	ldi	r20, 0xA3	; 163
    2756:	56 e0       	ldi	r21, 0x06	; 6
    2758:	28 e2       	ldi	r18, 0x28	; 40
    275a:	0e 94 ce 04 	call	0x99c	; 0x99c <ExtFlashPageDataRead>
    275e:	c8 01       	movw	r24, r16
    2760:	b7 01       	movw	r22, r14
    2762:	0e 94 d9 0e 	call	0x1db2	; 0x1db2 <SramAddrSet>
    2766:	e3 ea       	ldi	r30, 0xA3	; 163
    2768:	f6 e0       	ldi	r31, 0x06	; 6
    276a:	91 91       	ld	r25, Z+
    276c:	88 e0       	ldi	r24, 0x08	; 8
    276e:	97 fd       	sbrc	r25, 7
    2770:	0b c0       	rjmp	.+22     	; 0x2788 <sramASC16SetWithoutBorder+0xd2>
    2772:	9b ba       	out	0x1b, r9	; 27
    2774:	96 98       	cbi	0x12, 6	; 18
    2776:	96 9a       	sbi	0x12, 6	; 18
    2778:	db ba       	out	0x1b, r13	; 27
    277a:	96 98       	cbi	0x12, 6	; 18
    277c:	96 9a       	sbi	0x12, 6	; 18
    277e:	8b ba       	out	0x1b, r8	; 27
    2780:	96 98       	cbi	0x12, 6	; 18
    2782:	96 9a       	sbi	0x12, 6	; 18
    2784:	db ba       	out	0x1b, r13	; 27
    2786:	0a c0       	rjmp	.+20     	; 0x279c <sramASC16SetWithoutBorder+0xe6>
    2788:	bb ba       	out	0x1b, r11	; 27
    278a:	96 98       	cbi	0x12, 6	; 18
    278c:	96 9a       	sbi	0x12, 6	; 18
    278e:	cb ba       	out	0x1b, r12	; 27
    2790:	96 98       	cbi	0x12, 6	; 18
    2792:	96 9a       	sbi	0x12, 6	; 18
    2794:	ab ba       	out	0x1b, r10	; 27
    2796:	96 98       	cbi	0x12, 6	; 18
    2798:	96 9a       	sbi	0x12, 6	; 18
    279a:	cb ba       	out	0x1b, r12	; 27
    279c:	96 98       	cbi	0x12, 6	; 18
    279e:	96 9a       	sbi	0x12, 6	; 18
    27a0:	81 50       	subi	r24, 0x01	; 1
    27a2:	11 f0       	breq	.+4      	; 0x27a8 <sramASC16SetWithoutBorder+0xf2>
    27a4:	99 0f       	add	r25, r25
    27a6:	e3 cf       	rjmp	.-58     	; 0x276e <sramASC16SetWithoutBorder+0xb8>
    27a8:	86 e0       	ldi	r24, 0x06	; 6
    27aa:	e5 3b       	cpi	r30, 0xB5	; 181
    27ac:	f8 07       	cpc	r31, r24
    27ae:	e9 f6       	brne	.-70     	; 0x276a <sramASC16SetWithoutBorder+0xb4>
    27b0:	95 9a       	sbi	0x12, 5	; 18
    27b2:	df 91       	pop	r29
    27b4:	cf 91       	pop	r28
    27b6:	1f 91       	pop	r17
    27b8:	0f 91       	pop	r16
    27ba:	ff 90       	pop	r15
    27bc:	ef 90       	pop	r14
    27be:	df 90       	pop	r13
    27c0:	cf 90       	pop	r12
    27c2:	bf 90       	pop	r11
    27c4:	af 90       	pop	r10
    27c6:	9f 90       	pop	r9
    27c8:	8f 90       	pop	r8
    27ca:	08 95       	ret

000027cc <sramASC24Set>:
    27cc:	bf 92       	push	r11
    27ce:	cf 92       	push	r12
    27d0:	df 92       	push	r13
    27d2:	ef 92       	push	r14
    27d4:	ff 92       	push	r15
    27d6:	0f 93       	push	r16
    27d8:	1f 93       	push	r17
    27da:	cf 93       	push	r28
    27dc:	df 93       	push	r29
    27de:	e9 01       	movw	r28, r18
    27e0:	44 0f       	add	r20, r20
    27e2:	44 0f       	add	r20, r20
    27e4:	66 0f       	add	r22, r22
    27e6:	66 0f       	add	r22, r22
    27e8:	e4 2f       	mov	r30, r20
    27ea:	f0 e0       	ldi	r31, 0x00	; 0
    27ec:	ef 54       	subi	r30, 0x4F	; 79
    27ee:	ff 4f       	sbci	r31, 0xFF	; 255
    27f0:	00 81       	ld	r16, Z
    27f2:	4f 5f       	subi	r20, 0xFF	; 255
    27f4:	e4 2f       	mov	r30, r20
    27f6:	f0 e0       	ldi	r31, 0x00	; 0
    27f8:	ef 54       	subi	r30, 0x4F	; 79
    27fa:	ff 4f       	sbci	r31, 0xFF	; 255
    27fc:	e0 80       	ld	r14, Z
    27fe:	4f 5f       	subi	r20, 0xFF	; 255
    2800:	a4 2f       	mov	r26, r20
    2802:	b0 e0       	ldi	r27, 0x00	; 0
    2804:	af 54       	subi	r26, 0x4F	; 79
    2806:	bf 4f       	sbci	r27, 0xFF	; 255
    2808:	dc 90       	ld	r13, X
    280a:	a6 2f       	mov	r26, r22
    280c:	b0 e0       	ldi	r27, 0x00	; 0
    280e:	af 54       	subi	r26, 0x4F	; 79
    2810:	bf 4f       	sbci	r27, 0xFF	; 255
    2812:	fc 90       	ld	r15, X
    2814:	6f 5f       	subi	r22, 0xFF	; 255
    2816:	a6 2f       	mov	r26, r22
    2818:	b0 e0       	ldi	r27, 0x00	; 0
    281a:	af 54       	subi	r26, 0x4F	; 79
    281c:	bf 4f       	sbci	r27, 0xFF	; 255
    281e:	cc 90       	ld	r12, X
    2820:	6f 5f       	subi	r22, 0xFF	; 255
    2822:	e6 2f       	mov	r30, r22
    2824:	f0 e0       	ldi	r31, 0x00	; 0
    2826:	ef 54       	subi	r30, 0x4F	; 79
    2828:	ff 4f       	sbci	r31, 0xFF	; 255
    282a:	b0 80       	ld	r11, Z
    282c:	14 e0       	ldi	r17, 0x04	; 4
    282e:	cc 0f       	add	r28, r28
    2830:	dd 1f       	adc	r29, r29
    2832:	1a 95       	dec	r17
    2834:	e1 f7       	brne	.-8      	; 0x282e <sramASC24Set+0x62>
    2836:	20 91 a4 07 	lds	r18, 0x07A4
    283a:	30 91 a5 07 	lds	r19, 0x07A5
    283e:	c2 0f       	add	r28, r18
    2840:	d3 1f       	adc	r29, r19
    2842:	28 e2       	ldi	r18, 0x28	; 40
    2844:	30 e0       	ldi	r19, 0x00	; 0
    2846:	82 9f       	mul	r24, r18
    2848:	f0 01       	movw	r30, r0
    284a:	83 9f       	mul	r24, r19
    284c:	f0 0d       	add	r31, r0
    284e:	92 9f       	mul	r25, r18
    2850:	f0 0d       	add	r31, r0
    2852:	11 24       	eor	r1, r1
    2854:	e0 57       	subi	r30, 0x70	; 112
    2856:	fd 4f       	sbci	r31, 0xFD	; 253
    2858:	a3 ea       	ldi	r26, 0xA3	; 163
    285a:	b6 e0       	ldi	r27, 0x06	; 6
    285c:	81 91       	ld	r24, Z+
    285e:	8d 93       	st	X+, r24
    2860:	86 e0       	ldi	r24, 0x06	; 6
    2862:	ab 3c       	cpi	r26, 0xCB	; 203
    2864:	b8 07       	cpc	r27, r24
    2866:	d1 f7       	brne	.-12     	; 0x285c <sramASC24Set+0x90>
    2868:	10 e0       	ldi	r17, 0x00	; 0
    286a:	be 01       	movw	r22, r28
    286c:	80 e0       	ldi	r24, 0x00	; 0
    286e:	90 e0       	ldi	r25, 0x00	; 0
    2870:	0e 94 d9 0e 	call	0x1db2	; 0x1db2 <SramAddrSet>
    2874:	81 2f       	mov	r24, r17
    2876:	e8 2f       	mov	r30, r24
    2878:	f0 e0       	ldi	r31, 0x00	; 0
    287a:	ed 55       	subi	r30, 0x5D	; 93
    287c:	f9 4f       	sbci	r31, 0xF9	; 249
    287e:	30 81       	ld	r19, Z
    2880:	22 89       	ldd	r18, Z+18	; 0x12
    2882:	98 e0       	ldi	r25, 0x08	; 8
    2884:	37 fd       	sbrc	r19, 7
    2886:	15 c0       	rjmp	.+42     	; 0x28b2 <sramASC24Set+0xe6>
    2888:	27 fd       	sbrc	r18, 7
    288a:	08 c0       	rjmp	.+16     	; 0x289c <sramASC24Set+0xd0>
    288c:	1b ba       	out	0x1b, r1	; 27
    288e:	96 98       	cbi	0x12, 6	; 18
    2890:	96 9a       	sbi	0x12, 6	; 18
    2892:	96 98       	cbi	0x12, 6	; 18
    2894:	96 9a       	sbi	0x12, 6	; 18
    2896:	96 98       	cbi	0x12, 6	; 18
    2898:	96 9a       	sbi	0x12, 6	; 18
    289a:	15 c0       	rjmp	.+42     	; 0x28c6 <sramASC24Set+0xfa>
    289c:	cb ba       	out	0x1b, r12	; 27
    289e:	96 98       	cbi	0x12, 6	; 18
    28a0:	96 9a       	sbi	0x12, 6	; 18
    28a2:	fb ba       	out	0x1b, r15	; 27
    28a4:	96 98       	cbi	0x12, 6	; 18
    28a6:	96 9a       	sbi	0x12, 6	; 18
    28a8:	bb ba       	out	0x1b, r11	; 27
    28aa:	96 98       	cbi	0x12, 6	; 18
    28ac:	96 9a       	sbi	0x12, 6	; 18
    28ae:	fb ba       	out	0x1b, r15	; 27
    28b0:	0a c0       	rjmp	.+20     	; 0x28c6 <sramASC24Set+0xfa>
    28b2:	eb ba       	out	0x1b, r14	; 27
    28b4:	96 98       	cbi	0x12, 6	; 18
    28b6:	96 9a       	sbi	0x12, 6	; 18
    28b8:	0b bb       	out	0x1b, r16	; 27
    28ba:	96 98       	cbi	0x12, 6	; 18
    28bc:	96 9a       	sbi	0x12, 6	; 18
    28be:	db ba       	out	0x1b, r13	; 27
    28c0:	96 98       	cbi	0x12, 6	; 18
    28c2:	96 9a       	sbi	0x12, 6	; 18
    28c4:	0b bb       	out	0x1b, r16	; 27
    28c6:	96 98       	cbi	0x12, 6	; 18
    28c8:	96 9a       	sbi	0x12, 6	; 18
    28ca:	91 50       	subi	r25, 0x01	; 1
    28cc:	19 f0       	breq	.+6      	; 0x28d4 <sramASC24Set+0x108>
    28ce:	33 0f       	add	r19, r19
    28d0:	22 0f       	add	r18, r18
    28d2:	d8 cf       	rjmp	.-80     	; 0x2884 <sramASC24Set+0xb8>
    28d4:	8f 5f       	subi	r24, 0xFF	; 255
    28d6:	82 31       	cpi	r24, 0x12	; 18
    28d8:	70 f2       	brcs	.-100    	; 0x2876 <sramASC24Set+0xaa>
    28da:	1f 5f       	subi	r17, 0xFF	; 255
    28dc:	a0 96       	adiw	r28, 0x20	; 32
    28de:	12 30       	cpi	r17, 0x02	; 2
    28e0:	21 f6       	brne	.-120    	; 0x286a <sramASC24Set+0x9e>
    28e2:	95 9a       	sbi	0x12, 5	; 18
    28e4:	df 91       	pop	r29
    28e6:	cf 91       	pop	r28
    28e8:	1f 91       	pop	r17
    28ea:	0f 91       	pop	r16
    28ec:	ff 90       	pop	r15
    28ee:	ef 90       	pop	r14
    28f0:	df 90       	pop	r13
    28f2:	cf 90       	pop	r12
    28f4:	bf 90       	pop	r11
    28f6:	08 95       	ret

000028f8 <sramASC24SetWithoutBorder>:
    28f8:	bf 92       	push	r11
    28fa:	cf 92       	push	r12
    28fc:	df 92       	push	r13
    28fe:	ef 92       	push	r14
    2900:	ff 92       	push	r15
    2902:	0f 93       	push	r16
    2904:	1f 93       	push	r17
    2906:	cf 93       	push	r28
    2908:	df 93       	push	r29
    290a:	e9 01       	movw	r28, r18
    290c:	44 0f       	add	r20, r20
    290e:	44 0f       	add	r20, r20
    2910:	66 0f       	add	r22, r22
    2912:	66 0f       	add	r22, r22
    2914:	e4 2f       	mov	r30, r20
    2916:	f0 e0       	ldi	r31, 0x00	; 0
    2918:	ef 54       	subi	r30, 0x4F	; 79
    291a:	ff 4f       	sbci	r31, 0xFF	; 255
    291c:	00 81       	ld	r16, Z
    291e:	4f 5f       	subi	r20, 0xFF	; 255
    2920:	e4 2f       	mov	r30, r20
    2922:	f0 e0       	ldi	r31, 0x00	; 0
    2924:	ef 54       	subi	r30, 0x4F	; 79
    2926:	ff 4f       	sbci	r31, 0xFF	; 255
    2928:	e0 80       	ld	r14, Z
    292a:	4f 5f       	subi	r20, 0xFF	; 255
    292c:	a4 2f       	mov	r26, r20
    292e:	b0 e0       	ldi	r27, 0x00	; 0
    2930:	af 54       	subi	r26, 0x4F	; 79
    2932:	bf 4f       	sbci	r27, 0xFF	; 255
    2934:	dc 90       	ld	r13, X
    2936:	a6 2f       	mov	r26, r22
    2938:	b0 e0       	ldi	r27, 0x00	; 0
    293a:	af 54       	subi	r26, 0x4F	; 79
    293c:	bf 4f       	sbci	r27, 0xFF	; 255
    293e:	fc 90       	ld	r15, X
    2940:	6f 5f       	subi	r22, 0xFF	; 255
    2942:	a6 2f       	mov	r26, r22
    2944:	b0 e0       	ldi	r27, 0x00	; 0
    2946:	af 54       	subi	r26, 0x4F	; 79
    2948:	bf 4f       	sbci	r27, 0xFF	; 255
    294a:	cc 90       	ld	r12, X
    294c:	6f 5f       	subi	r22, 0xFF	; 255
    294e:	e6 2f       	mov	r30, r22
    2950:	f0 e0       	ldi	r31, 0x00	; 0
    2952:	ef 54       	subi	r30, 0x4F	; 79
    2954:	ff 4f       	sbci	r31, 0xFF	; 255
    2956:	b0 80       	ld	r11, Z
    2958:	24 e0       	ldi	r18, 0x04	; 4
    295a:	cc 0f       	add	r28, r28
    295c:	dd 1f       	adc	r29, r29
    295e:	2a 95       	dec	r18
    2960:	e1 f7       	brne	.-8      	; 0x295a <sramASC24SetWithoutBorder+0x62>
    2962:	20 91 a4 07 	lds	r18, 0x07A4
    2966:	30 91 a5 07 	lds	r19, 0x07A5
    296a:	c2 0f       	add	r28, r18
    296c:	d3 1f       	adc	r29, r19
    296e:	28 e2       	ldi	r18, 0x28	; 40
    2970:	30 e0       	ldi	r19, 0x00	; 0
    2972:	82 9f       	mul	r24, r18
    2974:	f0 01       	movw	r30, r0
    2976:	83 9f       	mul	r24, r19
    2978:	f0 0d       	add	r31, r0
    297a:	92 9f       	mul	r25, r18
    297c:	f0 0d       	add	r31, r0
    297e:	11 24       	eor	r1, r1
    2980:	e0 57       	subi	r30, 0x70	; 112
    2982:	fd 4f       	sbci	r31, 0xFD	; 253
    2984:	a3 ea       	ldi	r26, 0xA3	; 163
    2986:	b6 e0       	ldi	r27, 0x06	; 6
    2988:	81 91       	ld	r24, Z+
    298a:	8d 93       	st	X+, r24
    298c:	86 e0       	ldi	r24, 0x06	; 6
    298e:	ab 3c       	cpi	r26, 0xCB	; 203
    2990:	b8 07       	cpc	r27, r24
    2992:	d1 f7       	brne	.-12     	; 0x2988 <sramASC24SetWithoutBorder+0x90>
    2994:	10 e0       	ldi	r17, 0x00	; 0
    2996:	be 01       	movw	r22, r28
    2998:	80 e0       	ldi	r24, 0x00	; 0
    299a:	90 e0       	ldi	r25, 0x00	; 0
    299c:	0e 94 d9 0e 	call	0x1db2	; 0x1db2 <SramAddrSet>
    29a0:	81 2f       	mov	r24, r17
    29a2:	e8 2f       	mov	r30, r24
    29a4:	f0 e0       	ldi	r31, 0x00	; 0
    29a6:	ed 55       	subi	r30, 0x5D	; 93
    29a8:	f9 4f       	sbci	r31, 0xF9	; 249
    29aa:	20 81       	ld	r18, Z
    29ac:	98 e0       	ldi	r25, 0x08	; 8
    29ae:	27 fd       	sbrc	r18, 7
    29b0:	0b c0       	rjmp	.+22     	; 0x29c8 <sramASC24SetWithoutBorder+0xd0>
    29b2:	cb ba       	out	0x1b, r12	; 27
    29b4:	96 98       	cbi	0x12, 6	; 18
    29b6:	96 9a       	sbi	0x12, 6	; 18
    29b8:	fb ba       	out	0x1b, r15	; 27
    29ba:	96 98       	cbi	0x12, 6	; 18
    29bc:	96 9a       	sbi	0x12, 6	; 18
    29be:	bb ba       	out	0x1b, r11	; 27
    29c0:	96 98       	cbi	0x12, 6	; 18
    29c2:	96 9a       	sbi	0x12, 6	; 18
    29c4:	fb ba       	out	0x1b, r15	; 27
    29c6:	0a c0       	rjmp	.+20     	; 0x29dc <sramASC24SetWithoutBorder+0xe4>
    29c8:	eb ba       	out	0x1b, r14	; 27
    29ca:	96 98       	cbi	0x12, 6	; 18
    29cc:	96 9a       	sbi	0x12, 6	; 18
    29ce:	0b bb       	out	0x1b, r16	; 27
    29d0:	96 98       	cbi	0x12, 6	; 18
    29d2:	96 9a       	sbi	0x12, 6	; 18
    29d4:	db ba       	out	0x1b, r13	; 27
    29d6:	96 98       	cbi	0x12, 6	; 18
    29d8:	96 9a       	sbi	0x12, 6	; 18
    29da:	0b bb       	out	0x1b, r16	; 27
    29dc:	96 98       	cbi	0x12, 6	; 18
    29de:	96 9a       	sbi	0x12, 6	; 18
    29e0:	91 50       	subi	r25, 0x01	; 1
    29e2:	29 f7       	brne	.-54     	; 0x29ae <sramASC24SetWithoutBorder+0xb6>
    29e4:	8f 5f       	subi	r24, 0xFF	; 255
    29e6:	82 31       	cpi	r24, 0x12	; 18
    29e8:	e0 f2       	brcs	.-72     	; 0x29a2 <sramASC24SetWithoutBorder+0xaa>
    29ea:	1f 5f       	subi	r17, 0xFF	; 255
    29ec:	a0 96       	adiw	r28, 0x20	; 32
    29ee:	12 30       	cpi	r17, 0x02	; 2
    29f0:	91 f6       	brne	.-92     	; 0x2996 <sramASC24SetWithoutBorder+0x9e>
    29f2:	95 9a       	sbi	0x12, 5	; 18
    29f4:	df 91       	pop	r29
    29f6:	cf 91       	pop	r28
    29f8:	1f 91       	pop	r17
    29fa:	0f 91       	pop	r16
    29fc:	ff 90       	pop	r15
    29fe:	ef 90       	pop	r14
    2a00:	df 90       	pop	r13
    2a02:	cf 90       	pop	r12
    2a04:	bf 90       	pop	r11
    2a06:	08 95       	ret

00002a08 <SramSpace16Set>:
    2a08:	bc 01       	movw	r22, r24
    2a0a:	34 e0       	ldi	r19, 0x04	; 4
    2a0c:	66 0f       	add	r22, r22
    2a0e:	77 1f       	adc	r23, r23
    2a10:	3a 95       	dec	r19
    2a12:	e1 f7       	brne	.-8      	; 0x2a0c <SramSpace16Set+0x4>
    2a14:	80 e0       	ldi	r24, 0x00	; 0
    2a16:	90 e0       	ldi	r25, 0x00	; 0
    2a18:	20 91 a4 07 	lds	r18, 0x07A4
    2a1c:	30 91 a5 07 	lds	r19, 0x07A5
    2a20:	40 91 a6 07 	lds	r20, 0x07A6
    2a24:	50 91 a7 07 	lds	r21, 0x07A7
    2a28:	62 0f       	add	r22, r18
    2a2a:	73 1f       	adc	r23, r19
    2a2c:	84 1f       	adc	r24, r20
    2a2e:	95 1f       	adc	r25, r21
    2a30:	0e 94 d9 0e 	call	0x1db2	; 0x1db2 <SramAddrSet>
    2a34:	8a 9a       	sbi	0x11, 2	; 17
    2a36:	92 98       	cbi	0x12, 2	; 18
    2a38:	88 b3       	in	r24, 0x18	; 24
    2a3a:	8c 7f       	andi	r24, 0xFC	; 252
    2a3c:	88 bb       	out	0x18, r24	; 24
    2a3e:	1b ba       	out	0x1b, r1	; 27
    2a40:	a8 95       	wdr
    2a42:	82 e1       	ldi	r24, 0x12	; 18
    2a44:	0c c0       	rjmp	.+24     	; 0x2a5e <SramSpace16Set+0x56>
    2a46:	96 98       	cbi	0x12, 6	; 18
    2a48:	96 9a       	sbi	0x12, 6	; 18
    2a4a:	96 98       	cbi	0x12, 6	; 18
    2a4c:	96 9a       	sbi	0x12, 6	; 18
    2a4e:	96 98       	cbi	0x12, 6	; 18
    2a50:	96 9a       	sbi	0x12, 6	; 18
    2a52:	96 98       	cbi	0x12, 6	; 18
    2a54:	96 9a       	sbi	0x12, 6	; 18
    2a56:	91 50       	subi	r25, 0x01	; 1
    2a58:	b1 f7       	brne	.-20     	; 0x2a46 <SramSpace16Set+0x3e>
    2a5a:	81 50       	subi	r24, 0x01	; 1
    2a5c:	11 f0       	breq	.+4      	; 0x2a62 <SramSpace16Set+0x5a>
    2a5e:	98 e0       	ldi	r25, 0x08	; 8
    2a60:	f2 cf       	rjmp	.-28     	; 0x2a46 <SramSpace16Set+0x3e>
    2a62:	95 9a       	sbi	0x12, 5	; 18
    2a64:	08 95       	ret

00002a66 <SramSpace24Set>:
    2a66:	bc 01       	movw	r22, r24
    2a68:	44 e0       	ldi	r20, 0x04	; 4
    2a6a:	66 0f       	add	r22, r22
    2a6c:	77 1f       	adc	r23, r23
    2a6e:	4a 95       	dec	r20
    2a70:	e1 f7       	brne	.-8      	; 0x2a6a <SramSpace24Set+0x4>
    2a72:	80 e0       	ldi	r24, 0x00	; 0
    2a74:	90 e0       	ldi	r25, 0x00	; 0
    2a76:	20 91 a4 07 	lds	r18, 0x07A4
    2a7a:	30 91 a5 07 	lds	r19, 0x07A5
    2a7e:	40 91 a6 07 	lds	r20, 0x07A6
    2a82:	50 91 a7 07 	lds	r21, 0x07A7
    2a86:	62 0f       	add	r22, r18
    2a88:	73 1f       	adc	r23, r19
    2a8a:	84 1f       	adc	r24, r20
    2a8c:	95 1f       	adc	r25, r21
    2a8e:	0e 94 d9 0e 	call	0x1db2	; 0x1db2 <SramAddrSet>
    2a92:	8a 9a       	sbi	0x11, 2	; 17
    2a94:	92 98       	cbi	0x12, 2	; 18
    2a96:	88 b3       	in	r24, 0x18	; 24
    2a98:	8c 7f       	andi	r24, 0xFC	; 252
    2a9a:	88 bb       	out	0x18, r24	; 24
    2a9c:	1b ba       	out	0x1b, r1	; 27
    2a9e:	a8 95       	wdr
    2aa0:	8a e1       	ldi	r24, 0x1A	; 26
    2aa2:	0c c0       	rjmp	.+24     	; 0x2abc <SramSpace24Set+0x56>
    2aa4:	96 98       	cbi	0x12, 6	; 18
    2aa6:	96 9a       	sbi	0x12, 6	; 18
    2aa8:	96 98       	cbi	0x12, 6	; 18
    2aaa:	96 9a       	sbi	0x12, 6	; 18
    2aac:	96 98       	cbi	0x12, 6	; 18
    2aae:	96 9a       	sbi	0x12, 6	; 18
    2ab0:	96 98       	cbi	0x12, 6	; 18
    2ab2:	96 9a       	sbi	0x12, 6	; 18
    2ab4:	91 50       	subi	r25, 0x01	; 1
    2ab6:	b1 f7       	brne	.-20     	; 0x2aa4 <SramSpace24Set+0x3e>
    2ab8:	81 50       	subi	r24, 0x01	; 1
    2aba:	11 f0       	breq	.+4      	; 0x2ac0 <SramSpace24Set+0x5a>
    2abc:	98 e0       	ldi	r25, 0x08	; 8
    2abe:	f2 cf       	rjmp	.-28     	; 0x2aa4 <SramSpace24Set+0x3e>
    2ac0:	95 9a       	sbi	0x12, 5	; 18
    2ac2:	08 95       	ret

00002ac4 <SramSpace16SetWithoutBorder>:
    2ac4:	ff 92       	push	r15
    2ac6:	0f 93       	push	r16
    2ac8:	1f 93       	push	r17
    2aca:	e8 2f       	mov	r30, r24
    2acc:	ee 0f       	add	r30, r30
    2ace:	ee 0f       	add	r30, r30
    2ad0:	ae 2f       	mov	r26, r30
    2ad2:	b0 e0       	ldi	r27, 0x00	; 0
    2ad4:	af 54       	subi	r26, 0x4F	; 79
    2ad6:	bf 4f       	sbci	r27, 0xFF	; 255
    2ad8:	1c 91       	ld	r17, X
    2ada:	ef 5f       	subi	r30, 0xFF	; 255
    2adc:	ae 2f       	mov	r26, r30
    2ade:	b0 e0       	ldi	r27, 0x00	; 0
    2ae0:	af 54       	subi	r26, 0x4F	; 79
    2ae2:	bf 4f       	sbci	r27, 0xFF	; 255
    2ae4:	fc 90       	ld	r15, X
    2ae6:	ef 5f       	subi	r30, 0xFF	; 255
    2ae8:	f0 e0       	ldi	r31, 0x00	; 0
    2aea:	ef 54       	subi	r30, 0x4F	; 79
    2aec:	ff 4f       	sbci	r31, 0xFF	; 255
    2aee:	00 81       	ld	r16, Z
    2af0:	54 e0       	ldi	r21, 0x04	; 4
    2af2:	66 0f       	add	r22, r22
    2af4:	77 1f       	adc	r23, r23
    2af6:	5a 95       	dec	r21
    2af8:	e1 f7       	brne	.-8      	; 0x2af2 <SramSpace16SetWithoutBorder+0x2e>
    2afa:	80 e0       	ldi	r24, 0x00	; 0
    2afc:	90 e0       	ldi	r25, 0x00	; 0
    2afe:	20 91 a4 07 	lds	r18, 0x07A4
    2b02:	30 91 a5 07 	lds	r19, 0x07A5
    2b06:	40 91 a6 07 	lds	r20, 0x07A6
    2b0a:	50 91 a7 07 	lds	r21, 0x07A7
    2b0e:	62 0f       	add	r22, r18
    2b10:	73 1f       	adc	r23, r19
    2b12:	84 1f       	adc	r24, r20
    2b14:	95 1f       	adc	r25, r21
    2b16:	0e 94 d9 0e 	call	0x1db2	; 0x1db2 <SramAddrSet>
    2b1a:	8a 9a       	sbi	0x11, 2	; 17
    2b1c:	92 98       	cbi	0x12, 2	; 18
    2b1e:	88 b3       	in	r24, 0x18	; 24
    2b20:	8c 7f       	andi	r24, 0xFC	; 252
    2b22:	88 bb       	out	0x18, r24	; 24
    2b24:	1b ba       	out	0x1b, r1	; 27
    2b26:	a8 95       	wdr
    2b28:	82 e1       	ldi	r24, 0x12	; 18
    2b2a:	10 c0       	rjmp	.+32     	; 0x2b4c <SramSpace16SetWithoutBorder+0x88>
    2b2c:	fb ba       	out	0x1b, r15	; 27
    2b2e:	96 98       	cbi	0x12, 6	; 18
    2b30:	96 9a       	sbi	0x12, 6	; 18
    2b32:	1b bb       	out	0x1b, r17	; 27
    2b34:	96 98       	cbi	0x12, 6	; 18
    2b36:	96 9a       	sbi	0x12, 6	; 18
    2b38:	0b bb       	out	0x1b, r16	; 27
    2b3a:	96 98       	cbi	0x12, 6	; 18
    2b3c:	96 9a       	sbi	0x12, 6	; 18
    2b3e:	1b bb       	out	0x1b, r17	; 27
    2b40:	96 98       	cbi	0x12, 6	; 18
    2b42:	96 9a       	sbi	0x12, 6	; 18
    2b44:	91 50       	subi	r25, 0x01	; 1
    2b46:	91 f7       	brne	.-28     	; 0x2b2c <SramSpace16SetWithoutBorder+0x68>
    2b48:	81 50       	subi	r24, 0x01	; 1
    2b4a:	11 f0       	breq	.+4      	; 0x2b50 <SramSpace16SetWithoutBorder+0x8c>
    2b4c:	98 e0       	ldi	r25, 0x08	; 8
    2b4e:	ee cf       	rjmp	.-36     	; 0x2b2c <SramSpace16SetWithoutBorder+0x68>
    2b50:	95 9a       	sbi	0x12, 5	; 18
    2b52:	1f 91       	pop	r17
    2b54:	0f 91       	pop	r16
    2b56:	ff 90       	pop	r15
    2b58:	08 95       	ret

00002b5a <SramSpace24SetWithoutBorder>:
    2b5a:	ff 92       	push	r15
    2b5c:	0f 93       	push	r16
    2b5e:	1f 93       	push	r17
    2b60:	e8 2f       	mov	r30, r24
    2b62:	ee 0f       	add	r30, r30
    2b64:	ee 0f       	add	r30, r30
    2b66:	ae 2f       	mov	r26, r30
    2b68:	b0 e0       	ldi	r27, 0x00	; 0
    2b6a:	af 54       	subi	r26, 0x4F	; 79
    2b6c:	bf 4f       	sbci	r27, 0xFF	; 255
    2b6e:	1c 91       	ld	r17, X
    2b70:	ef 5f       	subi	r30, 0xFF	; 255
    2b72:	ae 2f       	mov	r26, r30
    2b74:	b0 e0       	ldi	r27, 0x00	; 0
    2b76:	af 54       	subi	r26, 0x4F	; 79
    2b78:	bf 4f       	sbci	r27, 0xFF	; 255
    2b7a:	fc 90       	ld	r15, X
    2b7c:	ef 5f       	subi	r30, 0xFF	; 255
    2b7e:	f0 e0       	ldi	r31, 0x00	; 0
    2b80:	ef 54       	subi	r30, 0x4F	; 79
    2b82:	ff 4f       	sbci	r31, 0xFF	; 255
    2b84:	00 81       	ld	r16, Z
    2b86:	e4 e0       	ldi	r30, 0x04	; 4
    2b88:	66 0f       	add	r22, r22
    2b8a:	77 1f       	adc	r23, r23
    2b8c:	ea 95       	dec	r30
    2b8e:	e1 f7       	brne	.-8      	; 0x2b88 <SramSpace24SetWithoutBorder+0x2e>
    2b90:	80 e0       	ldi	r24, 0x00	; 0
    2b92:	90 e0       	ldi	r25, 0x00	; 0
    2b94:	20 91 a4 07 	lds	r18, 0x07A4
    2b98:	30 91 a5 07 	lds	r19, 0x07A5
    2b9c:	40 91 a6 07 	lds	r20, 0x07A6
    2ba0:	50 91 a7 07 	lds	r21, 0x07A7
    2ba4:	62 0f       	add	r22, r18
    2ba6:	73 1f       	adc	r23, r19
    2ba8:	84 1f       	adc	r24, r20
    2baa:	95 1f       	adc	r25, r21
    2bac:	0e 94 d9 0e 	call	0x1db2	; 0x1db2 <SramAddrSet>
    2bb0:	8a 9a       	sbi	0x11, 2	; 17
    2bb2:	92 98       	cbi	0x12, 2	; 18
    2bb4:	88 b3       	in	r24, 0x18	; 24
    2bb6:	8c 7f       	andi	r24, 0xFC	; 252
    2bb8:	88 bb       	out	0x18, r24	; 24
    2bba:	1b ba       	out	0x1b, r1	; 27
    2bbc:	a8 95       	wdr
    2bbe:	8a e1       	ldi	r24, 0x1A	; 26
    2bc0:	10 c0       	rjmp	.+32     	; 0x2be2 <SramSpace24SetWithoutBorder+0x88>
    2bc2:	fb ba       	out	0x1b, r15	; 27
    2bc4:	96 98       	cbi	0x12, 6	; 18
    2bc6:	96 9a       	sbi	0x12, 6	; 18
    2bc8:	1b bb       	out	0x1b, r17	; 27
    2bca:	96 98       	cbi	0x12, 6	; 18
    2bcc:	96 9a       	sbi	0x12, 6	; 18
    2bce:	0b bb       	out	0x1b, r16	; 27
    2bd0:	96 98       	cbi	0x12, 6	; 18
    2bd2:	96 9a       	sbi	0x12, 6	; 18
    2bd4:	1b bb       	out	0x1b, r17	; 27
    2bd6:	96 98       	cbi	0x12, 6	; 18
    2bd8:	96 9a       	sbi	0x12, 6	; 18
    2bda:	91 50       	subi	r25, 0x01	; 1
    2bdc:	91 f7       	brne	.-28     	; 0x2bc2 <SramSpace24SetWithoutBorder+0x68>
    2bde:	81 50       	subi	r24, 0x01	; 1
    2be0:	11 f0       	breq	.+4      	; 0x2be6 <SramSpace24SetWithoutBorder+0x8c>
    2be2:	98 e0       	ldi	r25, 0x08	; 8
    2be4:	ee cf       	rjmp	.-36     	; 0x2bc2 <SramSpace24SetWithoutBorder+0x68>
    2be6:	95 9a       	sbi	0x12, 5	; 18
    2be8:	1f 91       	pop	r17
    2bea:	0f 91       	pop	r16
    2bec:	ff 90       	pop	r15
    2bee:	08 95       	ret

00002bf0 <USART_init>:
    2bf0:	10 bc       	out	0x20, r1	; 32
    2bf2:	83 e3       	ldi	r24, 0x33	; 51
    2bf4:	89 b9       	out	0x09, r24	; 9
    2bf6:	88 e1       	ldi	r24, 0x18	; 24
    2bf8:	8a b9       	out	0x0a, r24	; 10
    2bfa:	86 e8       	ldi	r24, 0x86	; 134
    2bfc:	80 bd       	out	0x20, r24	; 32
    2bfe:	08 95       	ret

00002c00 <USART_Transmit>:
    2c00:	5d 9b       	sbis	0x0b, 5	; 11
    2c02:	fe cf       	rjmp	.-4      	; 0x2c00 <USART_Transmit>
    2c04:	8c b9       	out	0x0c, r24	; 12
    2c06:	5e 9b       	sbis	0x0b, 6	; 11
    2c08:	fe cf       	rjmp	.-4      	; 0x2c06 <USART_Transmit+0x6>
    2c0a:	5e 9a       	sbi	0x0b, 6	; 11
    2c0c:	08 95       	ret

00002c0e <USART_Receive>:
    2c0e:	5f 9b       	sbis	0x0b, 7	; 11
    2c10:	fe cf       	rjmp	.-4      	; 0x2c0e <USART_Receive>
    2c12:	8c b1       	in	r24, 0x0c	; 12
    2c14:	08 95       	ret

00002c16 <USART_StringPut>:
    2c16:	ef 92       	push	r14
    2c18:	ff 92       	push	r15
    2c1a:	cf 93       	push	r28
    2c1c:	df 93       	push	r29
    2c1e:	e8 2e       	mov	r14, r24
    2c20:	e7 01       	movw	r28, r14
    2c22:	7e 01       	movw	r14, r28
    2c24:	f9 2e       	mov	r15, r25
    2c26:	e7 01       	movw	r28, r14
    2c28:	02 c0       	rjmp	.+4      	; 0x2c2e <USART_StringPut+0x18>
    2c2a:	0e 94 00 16 	call	0x2c00	; 0x2c00 <USART_Transmit>
    2c2e:	89 91       	ld	r24, Y+
    2c30:	88 23       	and	r24, r24
    2c32:	d9 f7       	brne	.-10     	; 0x2c2a <USART_StringPut+0x14>
    2c34:	8d e0       	ldi	r24, 0x0D	; 13
    2c36:	0e 94 00 16 	call	0x2c00	; 0x2c00 <USART_Transmit>
    2c3a:	8a e0       	ldi	r24, 0x0A	; 10
    2c3c:	0e 94 00 16 	call	0x2c00	; 0x2c00 <USART_Transmit>
    2c40:	df 91       	pop	r29
    2c42:	cf 91       	pop	r28
    2c44:	ff 90       	pop	r15
    2c46:	ef 90       	pop	r14
    2c48:	08 95       	ret

00002c4a <__mulsi3>:
    2c4a:	62 9f       	mul	r22, r18
    2c4c:	d0 01       	movw	r26, r0
    2c4e:	73 9f       	mul	r23, r19
    2c50:	f0 01       	movw	r30, r0
    2c52:	82 9f       	mul	r24, r18
    2c54:	e0 0d       	add	r30, r0
    2c56:	f1 1d       	adc	r31, r1
    2c58:	64 9f       	mul	r22, r20
    2c5a:	e0 0d       	add	r30, r0
    2c5c:	f1 1d       	adc	r31, r1
    2c5e:	92 9f       	mul	r25, r18
    2c60:	f0 0d       	add	r31, r0
    2c62:	83 9f       	mul	r24, r19
    2c64:	f0 0d       	add	r31, r0
    2c66:	74 9f       	mul	r23, r20
    2c68:	f0 0d       	add	r31, r0
    2c6a:	65 9f       	mul	r22, r21
    2c6c:	f0 0d       	add	r31, r0
    2c6e:	99 27       	eor	r25, r25
    2c70:	72 9f       	mul	r23, r18
    2c72:	b0 0d       	add	r27, r0
    2c74:	e1 1d       	adc	r30, r1
    2c76:	f9 1f       	adc	r31, r25
    2c78:	63 9f       	mul	r22, r19
    2c7a:	b0 0d       	add	r27, r0
    2c7c:	e1 1d       	adc	r30, r1
    2c7e:	f9 1f       	adc	r31, r25
    2c80:	bd 01       	movw	r22, r26
    2c82:	cf 01       	movw	r24, r30
    2c84:	11 24       	eor	r1, r1
    2c86:	08 95       	ret

00002c88 <_exit>:
    2c88:	f8 94       	cli

00002c8a <__stop_program>:
    2c8a:	ff cf       	rjmp	.-2      	; 0x2c8a <__stop_program>
